(dp0
S'code'
p1
I200
sS'html'
p2
S'<!--[if HTML5]><![endif]-->\n<!DOCTYPE html>\n<!-- paulirish.com/2008/conditional-stylesheets-vs-css-hacks-answer-neither/ -->\n<!--[if lt IE 7]><html class="ie ie6 ie-lte9 ie-lte8 ie-lte7 no-js" lang="en-us"> <![endif]-->\n<!--[if IE 7]><html class="ie ie7 ie-lte9 ie-lte8 ie-lte7 no-js" lang="en-us"> <![endif]-->\n<!--[if IE 8]><html class="ie ie8 ie-lte9 ie-lte8 no-js" lang="en-us"> <![endif]-->\n<!--[if IE 9]><html class="ie9 ie-lte9 no-js" lang="en-us"> <![endif]-->\n<!--[if (gt IE 9)|!(IE)]><!--> <html class="no-js" lang="en-us"> <!--<![endif]-->\n<head>\n<title>Example web scraping website</title>\n  <!--[if !HTML5]>\n      <meta http-equiv="X-UA-Compatible" content="IE=edge,chrome=1">\n  <![endif]-->\n  <!-- www.phpied.com/conditional-comments-block-downloads/ -->\n  <!-- Always force latest IE rendering engine\n       (even in intranet) & Chrome Frame\n       Remove this if you use the .htaccess -->\n\t   \n  <meta charset="utf-8" />\n\n  <!-- http://dev.w3.org/html5/markup/meta.name.html -->\n  <meta name="application-name" content="places" />\n\n  <!--  Mobile Viewport Fix\n        j.mp/mobileviewport & davidbcalhoun.com/2010/viewport-metatag\n        device-width: Occupy full width of the screen in its current orientation\n        initial-scale = 1.0 retains dimensions instead of zooming out if page height > device height\n        user-scalable = yes allows the user to zoom in -->\n  <meta name="viewport" content="width=device-width, initial-scale=1.0" />\n\n  <link rel="shortcut icon" href="/places/static/images/favicon.ico" type="image/x-icon">\n  <link rel="apple-touch-icon" href="/places/static/images/favicon.png">\n\n  <!-- All JavaScript at the bottom, except for Modernizr which enables\n       HTML5 elements & feature detects -->\n  <script src="/places/static/js/modernizr.custom.js"></script>\n\n  <!-- include stylesheets -->\n  \n\n  <script type="text/javascript"><!--\n    // These variables are used by the web2py_ajax_init function in web2py_ajax.js (which is loaded below).\n    var w2p_ajax_confirm_message = "Are you sure you want to delete this object?";\n    var w2p_ajax_disable_with_message = "Working...";\n    var w2p_ajax_date_format = "%Y-%m-%d";\n    var w2p_ajax_datetime_format = "%Y-%m-%d %H:%M:%S";\n    var ajax_error_500 = \'An error occured, please <a href="/places/default/user/register?_next=%2Fplaces%2Fdefault%2Findex">reload</a> the page\'\n    //--></script>\n\n<meta name="keywords" content="web2py, python, web scraping" />\n<meta name="generator" content="Web2py Web Framework" />\n<meta name="author" content="Richard Penman" />\n<script src="/places/static/js/jquery.js" type="text/javascript"></script><link href="/places/static/css/calendar.css" rel="stylesheet" type="text/css" /><script src="/places/static/js/calendar.js" type="text/javascript"></script><script src="/places/static/js/web2py.js" type="text/javascript"></script><link href="/places/static/css/web2py.css" rel="stylesheet" type="text/css" /><link href="/places/static/css/bootstrap.min.css" rel="stylesheet" type="text/css" /><link href="/places/static/css/bootstrap-responsive.min.css" rel="stylesheet" type="text/css" /><link href="/places/static/css/style.css" rel="stylesheet" type="text/css" /><link href="/places/static/css/web2py_bootstrap.css" rel="stylesheet" type="text/css" />\n\n\n  \n\n  <!-- uncomment here to load jquery-ui\n       <link rel="stylesheet" href="http://ajax.googleapis.com/ajax/libs/jqueryui/1.10.3/themes/ui-lightness/jquery-ui.css" type="text/css" media="all" />\n       <script src="http://ajax.googleapis.com/ajax/libs/jqueryui/1.10.3/jquery-ui.min.js" type="text/javascript"></script>\n       uncomment to load jquery-ui //-->\n  <noscript><link href="/places/static/css/web2py_bootstrap_nojs.css" rel="stylesheet" type="text/css" /></noscript>\n  \n</head>\n\n<body>\n  <!-- Navbar ================================================== -->\n  <div class="navbar navbar-inverse">\n    <div class="flash"></div>\n    <div class="navbar-inner">\n      <div class="container">\n        \n        <!-- the next tag is necessary for bootstrap menus, do not remove -->\n        <button type="button" class="btn btn-navbar" data-toggle="collapse" data-target=".nav-collapse" style="display:none;">\n          <span class="icon-bar"></span>\n          <span class="icon-bar"></span>\n          <span class="icon-bar"></span>\n        </button>\n        \n        <ul id="navbar" class="nav pull-right"><li class="dropdown"><a class="dropdown-toggle" data-toggle="dropdown" href="#" rel="nofollow">Log In</a><ul class="dropdown-menu"><li><a href="/places/default/user/register" rel="nofollow"><i class="icon icon-user glyphicon glyphicon-user"></i> Sign Up</a></li><li class="divider"></li><li><a href="/places/default/user/login" rel="nofollow"><i class="icon icon-off glyphicon glyphicon-off"></i> Log In</a></li></ul></li></ul>\n        <div class="nav">\n          \n          <ul class="nav"><li class="web2py-menu-first"><a href="/places/default/index">Home</a></li><li class="web2py-menu-last"><a href="/places/default/search">Search</a></li></ul>\n          \n        </div><!--/.nav-collapse -->\n      </div>\n    </div>\n  </div><!--/top navbar -->\n\n  <div class="container">\n    <!-- Masthead ================================================== -->\n      \n    <header class="mastheader row" id="header">\n        <div class="span12">\n            <div class="page-header">\n                <h1>\n                    Example web scraping website\n                    <small></small>\n                </h1>\n            </div>\n        </div>\n    </header>\n\t\n\n    <section id="main" class="main row">\n        \n\n        <div class="span12">\n            \n            \n\n<h2>Register</h2>\n<div id="web2py_user_form">\n<form action="#" enctype="application/x-www-form-urlencoded" method="post"><table><tr id="auth_user_first_name__row"><td class="w2p_fl"><label class="" for="auth_user_first_name" id="auth_user_first_name__label">First name: </label></td><td class="w2p_fw"><input class="string" id="auth_user_first_name" name="first_name" type="text" value="" /></td><td class="w2p_fc"></td></tr><tr id="auth_user_last_name__row"><td class="w2p_fl"><label class="" for="auth_user_last_name" id="auth_user_last_name__label">Last name: </label></td><td class="w2p_fw"><input class="string" id="auth_user_last_name" name="last_name" type="text" value="" /></td><td class="w2p_fc"></td></tr><tr id="auth_user_email__row"><td class="w2p_fl"><label class="" for="auth_user_email" id="auth_user_email__label">E-mail: </label></td><td class="w2p_fw"><input class="string" id="auth_user_email" name="email" type="text" value="" /></td><td class="w2p_fc"></td></tr><tr id="auth_user_password__row"><td class="w2p_fl"><label class="" for="auth_user_password" id="auth_user_password__label">Password: </label></td><td class="w2p_fw"><input class="password" id="auth_user_password" name="password" type="password" value="" /></td><td class="w2p_fc"></td></tr><tr id="auth_user_password_two__row"><td class="w2p_fl"><label class="" for="auth_user_password_two" id="auth_user_password_two__label">Confirm Password: </label></td><td class="w2p_fw"><input class="password" id="auth_user_password_two" name="password_two" type="password" value="" /></td><td class="w2p_fc"></td></tr><tr id="captcha__row"><td class="w2p_fl"><label>Type the text:</label></td><td class="w2p_fw"><div id="recaptcha"><img src="data:image/png;base64,iVBORw0KGgoAAAANSUhEUgAAAQAAAABgCAIAAAB9kzvfAADrcklEQVR4nJz9d7R1yVUfilZaOe0c\nTz5fjv11VndLrUYBodBKSFiAhGyujbGxANvPXF8wlsFhXAzYMsYYnvED2xcsJCFQaOXulrpb6txf\njieHfXbeK8cK749j69oS+N3x5th/rLGralatWXPWWmvOWb+C7339CoAcCg4opWkkONUUoqva8fkT\n5XIZYzgaHwyGvTSNAeACcFHWZFnO8zwIAgihbdsY4yRJ8FRSbDuDfBZ7mqZ06mXCCnfQd8eSZhqy\nKgkEkIyQhMI4GE+nJ+49o6oqxjiO4yiKhBCqqiqKslLR9vb2fN9XFIUxFgSBLMuNRgOJytx8Z39/\nP8uyLEsBACsrS67r7uzs1Wo1XdeTJEmSBGMsyzKEMAnVgoarR9tbO9dm7vDUqVOeGx4cjBgq8jxv\nNBq6ro9GIwih4zh5nucjFxOIMUQIICxkmaiaLMsknUEhBGOsKBillDEOAIAQckuVJEmWZYSQEAIA\nQAjBGGucCCEGg0GSJLquB0GQZVmn0zFR5nthrdbodueBwBBi3wvX1zczbM1mkxMnjyZJtN/b+pEf\n+cATX/pcEPqdueOcUwF4USRJGkLEGo1ap9MKIhyEXp6kaRhoMjl/9rQqK5cvvjo31/ajaDJ1Z16Q\nUUFUVTdLmqYpEgZCYoUMhKzrhqIi1xv0B7snz9w/Hg91XWeM7exsm6a5sDhXFMXNjXh+rgV4trl5\nI43GnWZJ06DnzQBDR48fv3r92vm7L0w9lyjyzt7uD/7QD4WBfPPmjf29Hc+b/fB73wch/qP/8se1\nar3bPBLHYRoFnMUSZBgxwXNOi9APT5069Z73vO8T//q3PTd805vesri4/NKLL1/cud5sNhVFIYQQ\nQvr9fhAE7XbbD/bf80Pv2L+9xbJi7+BA6PK3Lt1cPjkfjWLTNBEiaZoCgXRdhxBlWXbkyLHJZBIE\nAUIIQpjnuRCCEBL6rFqtapqGEEIIJUkSBIEQAmHEFYwUAjHiqoLLluGYhqpgQ9MF41EYxmHEKcMQ\nccaSKDZUjeVF5AdZnAjKAONIABkT348FYLpBdANDnHKeK4pSKdePnjhfqXSCqNjY3t3Y2vGi0CqX\nVo+vxnGcZRmEUFXVQzVSFKVcLrveLC8yAAVEgEjYss1avVqrV4kkptNREPi2bRmGOZ3OplNPVSxK\nKeccQggAOFRESZI0Tet2u0IIhNDKysrS0lJRFGEYlkqlLMsYY0VRHA4AISTLsiRJBZZjhoMcRAxm\nkGSQBDmfRFmaFllGKRUYY03TDEPVNFmWMeeFEBQAJgTlvKA0y7I4y+I840UuOENAEAikwx8QBMvS\nwWg2cWd2uWSXS1PP9aKgUq9leajpMkLAtk1N09M0h0AK/ay7uGQ4pZyBICn8iKY5UY1aq3uMUoGg\njLF0eAtRFAThbDYbZxmlBYdAIkSVJBVCiVKeZbTIRZ7xJMniOEnTJM9TLnIA6f5wl2Mu6YqkK4bj\nAELSgsua7bpuFEWMMYyxJEkIIcZYnueSarle/MDr3uD6yf7BGBItiItzF+7buHmjt7VjKPZ0EJ0+\nc/+162sMQy/1AVaYwBllOYMCE4GlgvEgSbwoOXHm/NefekazLCQrdqVGFP367TtEVQDBGaNeFE59\nz48jCoSkqbVq2wuz3cloEPm73miaBDkDrjcKI+b5ueslfpjEWZYzWnCa0XwyCwoGVd1WNIsJnGSs\nYJDIuuVUZ140nvo5BQWDAMkckMFoRmLfV1SJIAgZNRSlUrYMTQFcaIbOGMvyPM0zJjhAkHGe5pku\nmeEs9idhmgpgISpzCSAJKGEwljzZlFVZZQAIDjKMdatS2+slkECr5DBSCMJMR9VMDAn0ehNUMBVi\nTdOArKYc6FhyVL1/kMiSYhqWpmlFUbiuGwYRLQ5KTrOgCRe5ZVmSJO/vHdACAI2kaZqmqaIoQghJ\nklRV1TSNEMJoPHP7rieXyhoAyJ1F7iwpOQYtIKUiCnOEaJowXZOAkLI0sStzeZ4XNMUYYhkxwMMk\niuOITTKEgKwQw9AMU5UkAjgVnMkMSkBgzoQQglLOGIQQYiyIiRAiRAIAKoqaplmeF5wLqCtUAgHN\nDtxJGCS7vX3TsNvtblMAx3Gm06lt20VRDAbDubnFMEyciuZHgAMGESHEREgFvAxF7akn//DIkZXT\nJ4/USs7+ztpw2C+V9FJZd2d+zjjnQJFVCRIoKVhSCCFlp5KmRZZGYRgKwQ3LaXcajZb9zRcuLi4u\nympDkW1JVoIgKihQBJYVRlnEhaSqMmBqmlAIKC2wrFS9gP7Q+Ydv/eln/BAkCS6V5hBy9re3gmlQ\ntholpylL1tZujwJAIUuKIEi9MA0VjCA2ZZnQAgkhVIc4jcanP/+FTnuBSQExjL3xaGc4qhvlNM8o\npWmacs5d3yOEUM7uP//Q5ubm7tAVUBz4oQ5Zq6spqqZVm3meU1pgWSMSTmkOABdIjKYzSZIMw5Bk\nOWcc4FQgBIlEMPJHrolMrJSFYIoi1fUqBTmRJawpsgSBYMLQ1bJj6ZrK8sLPEghhjkSBAMUQY6Io\nJtSkktWYjaMihTQTQJcx0FTJJoTYdpSmKfUis6bIMknTaJYCrjhTL2u2GwvtuTlYS1hERZzQIAli\nG5sKRyqDBiBQ4CzO09wLBVZk6/BpgBBKYj+JWZIkAcoIUR27rKpynqdCgFKposjGdOIdrlKHi70k\nSYSQwwU+ioYF85PUjw+m7swzjaoilWiuWkYjSRIoVFZwKHRFKhFkFVms2BVAY4AUJCFJkSlLs4L6\nYczyAiGgIAE4QUKigBc8zfO0DE1MGRaAcw6LAguBMSYASqoiSZKuFZRSVdECGDEqsrRQa83zD99T\nrdQlSfE9T29Umu2uplvVojh+/PiXv/yVZqtOsDwaTo4dO7Gz3UuKSVr4kLBSucqZksYw8Mn+bjoZ\n5/V6ACGqVCqh5wDIMIaVajkOCAEAQA4xApggWcWSgjFWVQNBnigiDJIkjaIIaYYmywgQIWlyWqRJ\nXtBChHFKC4Al3SohJsI0w0SCBMt5RmWil2wbQUtRoKbXaaEYRmN3d3r3/fddvHgnDQPLMNMov3Du\nvjt3tuO0iNOk0mpCKeUoKXiGkQKwLIBCaZEkytF7VwaBR2VlEPgJBDEQz1++lGHkhYGiaxBCBgQH\nouBMcEgFX10+98SXvxkkSLFktVTNeX7ixLHxcEDkajTqZzmzHUOWURR7AlDD0EI/QSgTEJUVVTct\nJkCWZWleSDLLeSLrjmKQ6XQqA7nVakkaIo1qRdMVwFmRJKoqqbIiYxKLdOhONU3jUHCCOEGyKhum\nhjEq242hOpOQzlGmEFNXHFMrqarabvO9yVaS+IZACKMoSXw/jHCytHJXuWxjBYx9z48mHGWyisyS\nWlNrEEJD0VQsZUykfpjneR7GRtkCgCUx5ZynaQqBXC5ZhmFMpnv1el1RFN/3gZAsy1EUdWNj27Zt\nXddlWS6KgjF2+LxOkkRSaKVqOCX94OAgz2lzeb5k4SikqpBDKUQIFUUBgWzoJUU2IZiFIc1yxjlA\nWEFIw0CCMOE8qrRaAHAiQU3HsqEAmNOYpyLHnCEhAGOAc0gpglBCSIZQUTRJklS1oJRKkgwhppRn\nWfH8a68cO3aiaWo7O/tX125ZplMgNB5fu2tuudmsc84qlUqpVEqSrFyuFgWbBcMwnUFJccplBOxR\nP/V8Lnbdhx66C0IRRQkGRJZljPIkiafjYad5JitomhUZZZRD8N8IzaYeQjIAUHAYxH5B/cmMAZR1\n5zt2yQqicDiYFjmIokwiqmWXFRXkWUAFIkjBmNBcqIrVaLTGHivb5TgUEJmlUunS1Ss/snruW889\nCwWoV6v9YfzGU+du3lyTJCWMU9OydEvSYhIFEADIGcwZCiPhecXC8WPbw0F9oXvt6k1JUkJGL966\niU0tyTzKmaqqiGAhhBwpEEJEMKPk+tX12kLDMkplUz/o7zl2Zf3OhgzjQX+c5TEhSAgSBAGATNMU\nznGWZRgntl2ybRtC7LpukiRYQghzw1RkBfnBlBDSatdsR0dziq0n4NTcUcRIweRSZ/VG3701jmZ8\nZ5BsjLODlNBCkkJG/FzNQNmfudsbm4vz3dc//IDvDleWW4E/QDAZ+3ury52G6exf9Y1MbZmtj/zo\nX50FUePUwn42fWXt2sB1Vd3WZQfmMk5lKmdMoRnOgIZubm+U262QsoVjJ3v7dwwdzHWqigSzOJKQ\npMsG4hgxZW/zgOdcxqhkK826rsjJieMNTY5Mg9XqVr3TwGZ5WpApN6m1mGRVS13Jh3hRX7yweJZl\n1BPZRMopZHGRlBuVxSNLgoCJP/Vif+xNvGAjivcE8E0T1WvlWqWqyjrLoaXqpqwqFNBREKzv5xtD\nZ0aXuCnhUlEolJuaOS9bizGvebSSyd1oHwxuBUmf4YjAkDcN59TCwnylVMk65bwVrGe9q2PhSxq3\nQUIkoY2GvUsXX73r3F2qZFedxfnWubpzsu6clpJuVVlSuTTu3ZyNXjP1vUqpL9i1swvVlgZw5IeD\nyZsfeWtv01u7Plns3ivp5WZnSVZNBIml66Pd3b3bN1daNftMw161b2+/hrnbNjQllx++6+0Xjr7N\noHi60WPTYM4uNVTNgcLkBXPHm+E41qAP0jB3G1VjqeVUSFGDaVps3bp1xVBKvjfa3nvqLW9vLqyy\n8fBOBuaubwzLbf2hNy4FwbXBzs2G0nKKpRKxWMGZBA7yUV6h2jwa5etmI7tn8ZGnPvW8GMltef7t\nD7xz/8puS66pMfGJPXfugRdubyOnPs2KgedDRWp2O1/9yqcevPdkGQM+GFdycm/35OzmsMpKmkUX\nVxuduUZW5L5PVaVtqMtJ6Ax4hJqlIWcbXhSrtU0XfuvyYHOmDsdxkuE4RbfXelkhCWjcXutZTpuo\nlnH91VsUgXqraZWcfr9/586dUqW8WtMloiAk5RkPQZImRRHMgsgbq7Zla7Vaqd1unj5zUpblfv8g\nSWKEAUQiTWNdB81mnTN8+87NU6dP3Lp2tShyggAEXAiBEZoF0XBw0Ko2bdsuYxKnGcJYVjWIyGTq\nAqAKoWCimZaTZpkQAuCcQ3jsxHGEEKU0juPheFQUBeecc97uNIBAg+HBzM+8sBBIscoNy1TjaQEB\nhYJBiQCBCIIKhyoArABpXEzHnmVxghTLKNlmuVpu7O9vAwCgQGkcJXGIENIUpV4rYwgpF0UOaCag\nAEgiDCgCyVxwzjmnNM5SygQVXMISxDjmOdYwxgipRDVkjK0kDcLQr9VqAIAkSSCEsixzzhljsixH\niTsaTyGQJckCCFJepHnilO3ZdB8iWhQsTXMIsVGxVNlJYjr1xnGWAoyEEG7gE0UGGBWc0SzzgiAI\nQwhhnKaIEF1VgyiiiPQ2d7EAlUpFxWoycfvTcXd5kfY0IHFBSAEw0eWKXCWEqKpcYUZdd/x05s3G\n/VxYkoqZgKHnZUVYgEmQTqahQELiqsZ1Ryrd2L9kWERV9V5vOJsFhmFhqE6nUwRhGgtVcUjCAi9n\nkU9zXK63GOdEkkbjcblcJpI0HI0kWS6Vy1zLNm+tLbcXxr1+FiWOatAoP7Kw9K2r34rShEOAEMxo\nUUQsiiI/DFTbYIxxLgBAhMi6rquKLknKdJCwGISTsAjZ2OjRJHR0UnMUSLGum4Zh+b5PiDBNO8uy\nyWRGZlFgVkqNbtuplJM8m/YPOGUIQE1wGQiZIIGxJmgIWJrkjLFma8F2lDRNewfbEPLRqO/7frVa\ndRwTAKYbSrWu64asa6Xnv/3a+XP3bl6/gxDggBWAC0YlCcZx4vkFy/sCIrtUnXmBgARLCsCk1x8y\naiQJzjIoK5phGWnmCxgDKGR1Ic/zJEujJI6SmFJ66PGUJdUPw/HYnblxzpFhViSRQ5oqNMciF4wW\nADKWpQAf+mcKCtOwmHEfUCxBVcG6Sox6udXf38MYE4jyJPVmI0IIgtSxFVwAKoTgBAgZACKQxJBM\ngaLrMpIIF1BgRDkVEFDO0zwb+r5TsjRF5YgrCtFtI5rSYf/gwsnVMI48zwMAKIpSFEWWZYqupT7t\nD0eyZNhOTVJkJmgQ+a1O093cMzSNMm02G2FEFFkzTZuzJImFouqqZgAAspw2mm3GmCSrnhft7e0R\nQkqlUhRHsqI5jjNzfQ2b/bWtulWqOqVCQB4EN/e2Fi+cDqkGAM+jJC9cWYFOyUAyD7inJaIuW0jK\nh/G+J5Bc1QCCaRZnsgQMO+EwCAvLUFVuklhREy1JI9MuWWZ5e6s3HnkS0YBA48mQF3oOsFqyAE/G\nw4jwiOZSq7HsBT7EaHd/7/jJE4jgO+tr1WpVNw0gK9u3Nu6/+8Kli69ohMgQqZgsNRb+62gqhICQ\nCID9JD/0fSVJxpIsSYs0pwAgCSKIJSwrmCg2rvKEiwhkcRyORxLg7araLMuBr9l2qVSqBEFECKxU\natPpdDSakI29nfsefODYsWO3b9++fuOGEKLVaiGEkpnLZBVomqIotkJMSWe2xjm3HFKpVTY2tlw3\nsCx7OOonCc+ypNOtz9zB6pH5as3e3d29+0InL8L93tbKXGd/f3cymxJF5owWjHKIFpcX+3u7XGBJ\n1kfjAyZAThnCshcEKjKmXowV3zAJkKDgAiKmqFKcZ5PJxPd9hJCia5IQnHMOwMzz4ihljNmmLimG\nqhhA0NSd2KwQIucsjTkVGUwZjBKepixBDgISFEQwhDGOwwyBAGO5WW8hDCCEnNPAnwEADmMCErRl\nLIDCBVEQAhLGDIqoALYkEVWBiDAOWZpmDGS0KALfp4GKNFmGUAJAU4lpiiiKOaxWqzPP9X3/0FGb\n5TlMU9XQJcWM00IAlhVM1tQi5140bbSrI6/plDTXh5PpgFLOGKeFSBMqIMEEI6JIkjTzQlW3KKVJ\nRjPKhpOp4zgOwhllhmmVqrXpdFqiQBJwqTsvKPOjGMlSz595NEVKJS/iaejN3KlhIcmSsCzneR71\npurcalmzDcXAikIsM85SLwyAXba0KlE1LrCplRRkBKPUO4i73VZBM11zpuMoS0CeCYSoRBSCrYJT\nILQsRUmSEA5UaLSay9v7exxBLwpbc92C0s3dAZSI4zhAYJBxTCGmyDKM/sH+6tkzsRsEWYYxJoQI\nSoskOfzSA4SESVIUjAGIscQhijOa5qEQgQZLGU1sxcZESEIoKhGKDGnImZAlBQjozjwhBGciS/Oh\nN0J2uw5kcvX2zetrt3uD/tRzNVnhBS1ingZZ5IZpkABa6LJUtvR6xZx5e0QuGk1r5Uj37LkThECI\nwNZ2DxPm+ePllbnllbnewb6swOMnVja3bh1f6GoQIMoalUrJLiVxyhlcWDhil+uybmiWE8R5IdDM\njzjCDBJZU6M0mXpuWuSQYIixrKqlakUgGMSRG/gAI6dSNmwro8VoOskLxgSXJMkyjVrJqjmGo2EN\nFywNiyxMWJSBpMA5IlyVoalglsWOodq6ostYJdCfjva3N9LQK1ulkuGYqqJgBGjGi1DQCINMlYSi\nQsPQrIptV6uybRdY8XPen4yiJKZQCIKQLBFF5gCEaaKYMlIglAGSJYFRIZDAsmLYGGNKaVEUEEJC\nCOe8KApKqeFUiKITVY2LDEqEaLIbuVbVLJcrluWYRknXbIyULGVpmjPGqQBhknphBDDZ7R34UTz1\n/IPhiAEMsCyQdHih6JasmQJJaZqWy2XHcXzfn06nuq7btp1lma4bEEiMciEARkRR1HKpNje3ELkR\nKICl2SWnqulWTsVo5u0cDFxvBCGjNM/z3NAtiaiuGwwH0+WVxSTOIJDjSKhKmTNMsLy0vFAuVQmW\ns7RIkzxLC1pwWVLLperG9pakKtVGvdlpp0XOIQjiKEzi2dSvVZv9g7Fjlw3dDnywuLj86iuXGSYU\n4ZSLMC+CLE8YB7IimxaDBMmaYliqaWFFTykbzWa7B4Msy/I8t227VqtJkoQxFkLs7+8XheAc5Tn3\n/djzoijK4jgPgoQ8+tY3X7x48Zmnv7XQ6SyvrkxGY4yxqigQQSZEWgiRMoE5gxTmhQCsuViSFSYp\nHBYQIp4X6fHj3fF4muWhphMiCcYTw4RhNFs9srCxsQHyVJdQs+LMNdsFBMPJNKUsiLJSpYKwrBsW\nQBgTPBzNGAOabholeTYL4pwJbBFFFTnhEBHZ2t0ZDcajLMvqraZhW0VRhElccGaXKmEYJlFE84wS\njBA0iWya2n7qFzinqMAS0QxJIYrOVVjgqBcYhiwEk1BhmqY/S13XrTgqEBKEACJGANAkDKDAhBPC\nDRMXBS+oAAQhjHgBaMpjkUf9gwotShBCLFMBoESIpkBOVSjyJAxpoao6z9ikP83zQkV6HMcIIV3X\nAUYMAUVROBBFUUDZlmQmK/p05imqrmmaF0whZhBISVzkOdV1A0KUJBkUuUQ0Xa+ORqOcgkqtNZp4\nEMKsEAhhCcm1ehtCmGZMVgyElSznimrO8plRdoI0Ljg7dNQuNTsKBUXoRbMhT9OyZtuqhjIiUa1Z\nrVvlGlZ0LMmqagZZMh7O+gcjP4woiOpqJwknYTAmaknSpahIQ5ppmhRFkSJb49FMwqamUk1H1aoz\nG2QFzSiAEAlMIAJAUSXbMTd3t4kqHzt1QtbVsTttz9eyLKOAz6J4oTrXHw6qlXLCaK1T0p3Ks898\nswBQsMOvLcYBxIQgRcWKIiEMAMBYwkgRAgIKCwbTnIZ0luZpza5gTYrSUMVyTtFu3z17asXQnUq5\n0W7NZ1mma7ahZ4JjwjAUEg5TACVi2lYSxeVSaTaeUKALIBAUFKKMkyzOkzRMkujkvXOj0SSMgizl\ntOCuO37wgTcAcFvVyF0XzszcwWSW3f/Ahc2tW53W6l0Xzox7exXTMk2zSOKQMstyeJhubu3Wm3ac\nF0TVZM1kTOzuHKiqVi+VOHYTOuWZwkCDAxKEtCgKAOIgjqjgsqbKmlpwFiaxQLBUrUiKqlIqCkrT\nJI+jMM9UWZYwKUCegzxFBYSsQNhAksIRArjVsjnn/f4AQmt+vpokRppOZZl60wJCgAkjslBkAhFn\nvCiKpFKW/LDIgyjPgcBKIVCOMoqprmmKpgoI0zyjHGBFl1WFclZRsDvz85zKgPh+5nmhplqdzlwQ\nBIqiVCqVnNGMU4gQ5YxzHoQpgIAJ0OsfqLqmGaofemkRAYB8P4iTTJGNIhfTiZeosFJu1arV/ngM\nAGh2u+vb20IIRKlhGAzgztz8bDYLo6hUKlEuZp5v2zZDGVDY/mjYbjasKN8fjJdKVZwUikhwHpUV\nud1uE4ICN/BB0tDkhWNHFcdJkkQAxAue+YkqSK3ZTcF+3UCSiPLcJwpABkqlPFVZQXNVVdutuTu3\n9pKYaaopRLSzu+2N4iBP7UbVspUoojzNEaaGKd1eW+t2u6fn54fj8c3bt9vd7vr6OsQ4g3DgBQzB\nWRIH3vTNb3x0lsYbvZ4oVw4D/AghSVEIIRyhlDEhEOccFAJBgBAWACmaDiCBJk2LIMM6AngWJ1XN\nlA2b4YMkSfO80HWj250LwxBjwhhXVQ197akn7ZJz9PhclCZra2txHOu67nlelImUQgoIwKpASkqF\nFyWjmbe1fWdrax0A2mjULNsAAGCMt7f3S2Xr3vsuuO50Z2frwoXz29v72zsbJ08dCz23WnZM3djb\n3d3Z2VMkVdeN8XiaZzRJMoSIqqqaZsRxXBSFLKtp5kXxNEl9xoqiYO4sPuhNd3eGnU5nYWFhfn7e\nMAzP87a2tvb39z3PS5IEAKRpmq7rBMEsib3JaHSwD2XMJJADGrBkmvijYDqYDvuTYbVmYkJdbxDF\nU8uWG03HdhTdwELAQ88MABwhIADL8jgIPMuSFJlTFoeJG6VeSiMKCyCBhaXFZqdtOTZCqGD0MBKH\nCVlZWGhUymXLrNolU9UgBYasL3UXkiRRFMW2bU3TZFnWdV1VVQCAGwRJVmRFMZrM3MClgkdplOSp\nJEl5nhdFIUkSAGA2m41GoyiKOAe+HwZBRIhcFCzPaZYVCBEmRKlSQYRESQIQyin1ggARYrVq2NSm\nvtdutzut1uignwVR4YbdRqldK63Oz507cWKluyJxJZnlNITNxXnZ1AvBmOAAAAmidrV+/uTpxaa5\n2KxUTJVggWQBFFBInKugKIpKpdLtzodhEgQxxlIURVeuXNnd2/CDCZGEaSmyAgXIASwUFe3thUEQ\naJq2v7+/vr5uWRZjDACAVHV/PMC6PvK83YF//v57h+40pkWUpHGa5ZRBTGRVI7LCBIjTLMnSIIpn\nrj91Z34QFYxLsmJYpl6WkCYYYQnLwjwXRLEqLbva3djY2NnZcV2XMZZl2XA43N/fH41GaCmV/Fdu\ntwrJifhDZy7UdMvRTdu2S03Dyye9qLcV7VzpX+oXPWtOqa/Yki7X5ucTYqnNUweeOhjhi9+5/ca7\nH7XKrW89e0mWOmdPPnblpZ2jc6s4pVdffD7WilxnxIamQ1oV+WjLvv9I57HTS2dWzp8/etfVF6/c\nePWaRIXEGKFFSZVOHF2plaqmXAmn1B+ntm4szldoMZxez1uwW6JKWRTZYG10Z2POgMcbdqsyr2Az\nTugsisZZMIMhr0vlU03VBGXdvH/5gXvs+962+N7gKna3FBMd7e1upa57em75VKmbXztwNrP72dzS\nDi6jwuCZVFCQQU51zmscdhlaGIySvJB5rkqFObg9Ht8Yd0DLmMkHbrDVG/ZGEyRLnU7LNmV33Nu4\ndWU4Gr186VKUpXa9wmV8/nX3v+2H3yMMZYOWb7t0lqaGDmQY9vrrW9ODVNNghV3bu3gQ7h69a54Y\nbGvnuqIUqsJodvvoskFEgIp01u8V0ey+80dib7O3sdsq1b3B9NVvv2RJ+vVXr+AC+MOZd9BPpzOU\nZjaRyooqFZT6AQvCaIPLadlyFgKkZSXrdY+/5d63vG5YTMrlsq6rnj954cVnX3z5m0TOmh1jOFmb\nTm4psh8GOxLw6yZ8yyP3fOjxt5kis7kmMV8hg9Wl8tNPXkJ4lYKq2aoluuRq9Ea6ns0VcSUZ01m1\nPnfPqUcHEejH/CBlsFrPDT0SvFKtjocDmoKF9qnz9zz2xNMva9XFta2pITc1Xq6x8J5uc/2FNZ3z\n+8+dbjWXn/jyt5HSkCQJQihJkmmaQojRaDQajfI8j0ZZOIxBAmpGpWGXNQg0JJolK/BUi7T1QKpG\n+JhmgOnubHL99IX6K4OpfmoBL9R41biyt17qNjLI9oYHxAsmumXWLMd0VNtUVA0jRAnmtXpZ1kCS\nhuPJAeLsWKc132mOhwMBEywJDoo434eSW+/QRqtQzFGWtdIsg4DHcUwwJJKkW6ZlWQURkoQREs1W\njWClVqsihAHgm+MeAKCghaYTp6SXKyYhJM2C2cSrV2slu724cOSFF16YzgaqLjrdZpm2KE0ODoYA\nOqZRWVxIm405RTav33hNlmVKiyzLMMa20yAYjYdRRotSxZYt3U18o2KdvecCEJIQULXas/FkeDDd\n8w8MoDStarfeLjuVpiSCOPLCIC6yIi4yRtM8S4t80B/nOW3U24xBBBWJaH7gTibjilWWiDIezYpi\nMj8/r2maaVROnqhFaVqtVBeXVqrV6tr69tr6bSHgZDIbTHwaTkOVoU5JUgzLLidh4s1cCaJKqV11\nWu5kytKs026qipFGFGA+ng1VXSJY73Tn250lTXfKlfaBO3EcR7aNAgMOUalVr3ZbGOOtO+ucc0VR\n0jSN4zhNU1mWTdO8ffl6q9XUMAJFetDf29ndVBDVCer3+7IsHyYg1et1TdOCIOj3+/fdf2Tr9sZg\nb1CtNo8cObWz04uy8c4gmSbFilZyowwKPFepVgDY39uRxsNSewUFaU02RrsHaRhxUbCwKGnWqbNn\ndwe9Xq8vhj1LU1uN5l13X9jY2i7rUr1ev3r1KqVU13VDUsKMIoT0Ugkq0tl7559/afdv/tzPf/Gr\nXzMrFUQkRAoAEMaSEFAICCEGgDEmdF0/jHWnaXqYAXCYD+b7voFloukQozTJMkotTEzTvG+x6d/c\n7mUYUn6i1AJDX/WyBpfRNOrLOi/V1PnFml2SKmVFIjlBaaVqTYb7k73thiofKVfsvKhwcWFxMQwi\nznleRH54gCR3flnpLECkHARxFKVJnCZRmlDOFE3VTUM2NAj5ZDqYzoaEANPSGE+yPJQVnBd+mrkQ\nZZLMuIglmZkWgSgbD4ZFmsVBuDg3rxBpvtO1DfPoyury8hGCpdFo5vuRY9fm546UnGae4slsv6Ah\nkTgAoMhhlsDZpNjaGHePH6905yPB1nu7B+4EqljIYOiNtnsH0zApCOaqnMlkCtl27N4YH0xz7hbC\ny4WfibCADKmyUTbLTQDl4ch1SjVMZMuxjx4/RjnTLW06TqEw0hhNx2mRSaxQWKGU7E5/OI3SIkqS\nOEkghGkUrd28dvHlF3ieRKHnhzGDsl1u1BpzpmYDKqbDzJQbltb0p/mg54mCaLLDC5Tk3u21awAB\nJriimu32suvmGDkH07GXxoygg+l46M0kU6cYBnma0yIrciJLsqqkeVYwqmiqoqk6Bnk4y8NZEc0Q\nTfPQnRzsmjIaDoecc4SQbdtHjhypVqtRFIVhyL3EP5iU9TICmlXqXr0zuHMQ3RnEtyYpqcwfTFPA\n8Uq1VU6L9Pr16ng8hywngctOc7LZYylPs+JgNJomMZJkw7Q0WYu9hGfM1MxzF+5+5dLlZrvdnZ9/\n+tlnMkYlTSWqIiDkAMSCc0VmiixZwGl3vviNr8+SuMCIUcEZKHKWJnmeUcEhZyDPqKJoiqJBiPOc\npmnOmAAAAYBmEzeO05yLlLMwz8M0KwqGAHnz+fvJONTCoqPa73z4sTmjtFJtnZxfRgXKgcQTGkkq\nwog1q46MOCiSO2s3siAgWQGmfomjM52Frm3P9vf7eyJ0tSRUIx8TbDWbXdu2w8gPs6RglApOAQcI\nYUUWGGV5DmDu+WPXGwFYIEzDaOYHE8ZTiCjCzHY0WYEzd5hmgWkphil32m0owPraGmfMse27zp8v\n2Q5nrFIpHyZzEyxrqqkqVpGj6SRqd6qmpaiaout6mhabG72drVGWkJWz53JC1g/6W4N+fzrujXpT\nd0RpmhVU1vRyo1HuzhmdJq6WI00ZiHx36g6DOCh4BjCHksAKlnRFNjvzR9IC5Bxs7fUGk6lZclRT\nO3Li+KDvCi4besU0qrZVx0ifTeOD3tSPcy9K9nr96dRt1KoriwumJrM8IiJDUAiIci5lXOZcJlAz\nJd0dFd6YFomkQEvBJmSECMnSHSxLbuDqlskECOMsTtnO3gBiVbZ0IWOoSgN34iah6phuEm7s71Ag\n3DDIOZN1jaiKahqyrnlRePeFs6oszaYjbzbttBvHjx5RZFIumbZtR1E0nU5VVS2VSmmaFkWxurra\n3z5AjCzPH0tT4Pr0xkbPTdEsJ3sB1xqLB5MEUFySNOK66dbWHARVprTlUlur5LOIAKKqWkIFI+Ti\n9RtM4CMrR7r1NmIQAWJapdeuXWvNdZxa5er1axAjypkfBmGWUMATxqCsbuzu/8iHf/hLX//GNAoz\nAQWR4jhN0zxJsihK8pwiRDCWOAecQYxkRdYxkglWFFmXiMoZRAxlWT4LIzfNI04TJsIgnQ2nUCIJ\np4pj5UgoFXucRYUuUUNGSJYYAr3+ge/7YRiWHIdAVMTpjYu35mrts8vHYVjgiJ5cOW7blaefuTHu\nad7ISvwKTeoSmNPIAmA1fyrnjHIEAcECQkAQwCinxdibOSXdtBTTUixbOfSTygqwHXV/fz8Mw2q1\n2mq1DlP5dV2HEB5ZXF7sztmakUdJ4ocip3mcjA8GM/dAwLRU1ssVixCcpmkSZ0XBqpUmYzBNClnS\nMFKiMJMl/fSpc3HO72zv7vf6JcdpNeosS5PIrzj68vzKfHfRtis5435eME0xu63ykZUCcCBhSVdV\nVUUI0SQLZ543nmLZzpk0niW7veHewciNAqRIZtngDGUpk4imazYQRCKaLOnTiU8haXYXqs0OkgjG\nWMLC1pUTK0uJP2ZFSrlwo2L3wO0PPMBgo1RlKRruj/1JWHFqc62uKsmCcVvXyrWuXW7b5YZqOmGW\n7R703DDQbL3T6ciyrKoqpVRRlHa7zTmPogir8iz0ozyVDU21DLtalg2tPxmZVlnVDUnWZm5IGVA0\nPctpo9m9++67D/NKNE1zXffWrVuMsXPnzjXaS4NxsL69D5BiOKUkS8M4sByLY8N0mgeDKeWIU5Em\nCc+zhuMEE79RrkdByhhkHGJFF5hwRMK8iLKMZ0JiWGJkcW5l5gUb+6zd7YZx5EUhlEiQxL3hwAv8\nNM8ts5QkWaXSeOtb3v7tb7+gyMbqylFZ1gRHEBDB0aHGm4bj2BVds9I0R4ioqq6quqYZum4SIlPK\n69UWkbSE8RgIaJhE19KsGA2muF1euPdM69yxPswuDra3eRhXtbRukFzgjKPB0C3bdZkH1aVanmcg\ngwu1+a2rO1Kj+ejdb6Qg+/yXnxpRj5UBLFRGCaeKhEsSNmjKKCeQO1AihHMhWMqKjBYIiozRMI4b\nTcuyFSEgkQTjKcJU0zXb0bY2Z80mle81qpWW53mKbCKoDAdTKXEr5eaZEyfzOJkMhntbmq0btVJ5\n7+AmgEW5qpQqKkBZFLvEknVd9mbhbJYUBTN0VC6Xbatcq9WWllZ2d3dG/YkESafbbFVqL0xns/GM\nV6tJpVJr1CVJlrCSwixhIvP8JM/8wNVkRVNUQrAKkYAYQYIhOjiYcUE8P8JEKWjeHwwoL8bTSXeu\nmaQBxliAYjjqLS0tLS51b9686UXZ6tETC4tLwWSytbEWTiaOabYatWnqSbKmWVUom3Eh0gxULGu+\n0a5YE9cb50nqWMSwnLKlYJAl8SxNFIwq43ECAImTZDjctSxHoAQVfDaZqKrK4gxaTAE4D2IFYFXT\nXNc1OSeSxDmXZBlzHvb71zZ3OdJK7cXB8KDY3AsjP46jBx+Tl5bmnnvuuVqtVqlUbt68ub6+fuLE\niXK5bJ+570+/9szF9d23vvOd3bn63FwFgqBZs+aKmoLI9sYmgDhFSOgWqlSTON7a3jp6/ty1tTWs\nql4UE6vEEfHDePXkydH+wfUrN3kclRzjgXsf2NjcBRJoL8xduXFdM3QkkbwogijEnMdFZqZkFvgP\nP/i6rVvreZCGM799V+vO2pqmGYfBLAihquqWZVFKAfAzHxJVlYgshAACHwb10jSrl6qzyI9BDlWV\nKBhkGOR5HqVhEiNV7k1Gt3e3rm2tIVnKilzXdeR6BedqUUiCqe4045lUJBhxvaLU3f0CpdLJYxcw\ntj7/jbXv3B6tPPRIaw7rVkJUXzVSLCUFDRFm1Zqt6TqSpbwoPN/3g6BgDEsESySKPUkGmk4KmkSR\nh7CwbN229XqtKrgSBtRzM3eWZilME7CzPbz02jXf9brtzmwy5ZSFflCrVGUiceCreuGUiW5AyoI4\nmRUslGQwGeUYlgDXAj+tVqtvfOzh02ePjCY77sC1FKtba+lQ5mEkU6ZRAKPI3x+LMDewYqmmKmsA\nQD+MDwYTCeSHPwXkOmYVjXRL5kqj4vpJpdqmHNWaLdO2J+5MM4wgDo4cXWQ8VVRkWorrjRBmtboz\nnhzkDFKAZ57XHw6SJOGM5mnIsvjo8tzywnyj1bZKdaLYQkg0ZUWcLy3MLS/OGboc+lPGonrdUmSx\nu3Wrt5cEPrp2bZNSrBl6mMyqDUPgMA+iaOqqECsA5UHkDcfuYGQrmqJrACMsSwLBme8FcUQUWdbU\n/UmUCAVo5b6XjkLm5fDaxv4r19cPDg7yPD927Fij0djZ2RFCLC8vZ1l2eXO/triq12ocid3922fP\nzJ1YLVXN+ESnKWJ/885NQAi0LG1xCS8sblB+a3RQP756cfOOUW94SZJThhDx/dAslbOcxkEsQ4kn\nfGVp5ZVXL64eb84tzH/nheetkiMgUDRV0TXN0LMin+4P52vt80dOPvWlJw0gW5LeW9vRkaIquqro\nBMuCQ0YFEOhwf4Wm6aqqAQDjOPH9IAyjOE6iKKYZBQBjWWGExIzGWZ5nFHJ47envXH/y2y984WvE\nS7CftlRreGdr88oN4vmUCwlLuiwZSeDlKWc5lLF2+aVrjz38+jfff//edv/5ly4uHKt2HjrFnFJr\nflDwwCt8WfeRnFMwJopZrctDTU3TNC3yJM0lgjSVyLKsGTrnsWU5sqxGYcZ5YRharVapVqsX7rp/\na2trNg03N/Z830/TNI6KydgvNSDG2DCM3v6WqqpCCErpjRt3jp04qumYQ4nIjPpxknpp6sgSYIXc\nbnb8YNof7BqGcebsia3t9ZdefrZaXy4ZTsm0wtGYJ9mRuQVzVbY1IxeKU60Geb7j98Modtrtpc78\nwjKAXh9DKAqWRXERxZQDxnLOC0WttU07ij3bKRcsT7J0fqmTs7RZr+33dpySqSiK508BZACy9Q3/\n7CMnkjS/s74pknBlebmsycF0xPO802qOgzwQKkc4L7jrx2HiFZ7X7J6pVgyMi97eDU21HPsE4N7O\n3p2AnaJM6Q8Gd91jdhe6e/31lWPzmi45ih7L2lytKXOYZVnuRyxK680OlSUsEVlVOBBTd8aBqNSq\npm0xyaEEh1EwDrK5IzVHJs+9fP07r12VojQMw/n5+cMsiXK5vLq6Gobhf/3cF97/w+85np2eDPa/\n+a2vHzs632nXXnnphfnaMovC/kE41+5IlmnPdXCjuRW/NErj2sLccxu3zHol29niEBBCYi8aDMec\n82az2TSs3u4WEujK9evHT5yq1mo3bu2fu/8449y0LMu2YUZpmhdu+OiDj9TsyvRgoEBy16kz33n+\nxTf+wJu2B5sAIMbE4TuPLKdpmrquX1uYlyQpSZIoOkwQEhjjJMlo5jIZ8kPXShKnnusAbBFlWXam\nSNTN2uMfeL/p2I357r//vd91fQ8t1po7t7Y27kxilo6p/8SrT648dmbq5Cff9ugHPv6zz+P9l80d\n5y2NqDJpt4Y1flWTCKF0sVS1cq5mtO5YMQuZAfLNHTtO5Zm36jinO52moS01qgpPO93XB2Fjd48U\ntK2ox4LI3txON7fTu+46srV1Y3//luPgc+dW5uZKQXDQblvthVPbBxOuCMkRTImFVmwP9o6dPafV\nTGQ6d3b9517steYfPXbqXVduJntDPIi2bu5dLM2pP/wTj9eX7P/4yd/74tN/duGRM3cdse87OX/u\n6KnXP/yOXFT01ippd9TVTlJNr0+vwSq78PCpD3zwh977Q4/OW+pyyW4cPWN0Vs48+MZeUJQ6qzHQ\nDmbZMKB/5c2PDG9cyvt7cf+gRCSZgae/8uTxpWO3tnoRRUMvderLr3v0XWvbwee+9NLpu86cNHGN\nh+eWV06euW/TJ0/vsBv46FX1zBdevXJpe+fs+SM3Ln4jd2//bx9+R0aDceJt4/0/fe0LWQP4Bmuc\nPhJKyou3Ntf6/g889mAcTRQJ+TM/8rIPfeCjLzx76c61g3a9a2j29lavM39s6dhdBzMKjHYh1yhs\nlqsns0RPAnRs7nhTr07Xd9P9gWUNHNuj2V69TMKpG07Sh+9+owE7N9h4Xys2ePCfvvbFGUZvff+P\nUMncGQT3nnvg03/0Zy8+d0Uitdu3p7fvRLp18vqd5PSpc2t3NpstK4gTteQY9dqsSHZno9bRVnu5\n8fTXvhj0dt58793zZev0saWl5bZN3Xe/9Z5GV1zcevGnf+Ejl2+8tP7a+vsefnxjbfPkUnu6tqeN\n07efvL/L9XKGzRwdeeMb13L/4//hX4Z2fMvbGLKDc4+ev7F/u+/T3iwJUi5JMmTU6++6u3f4bHCy\nSxer6VyDz88bVk0NUDEGPDHNiEWVitQ0korYXzTiOZuosqJY9SugulVt3izhL44urlnuFX+jtNwd\n+ylZXl5Okqhctg4ODvr9/e5c+7nnnnHd6bvefmFza+0rX/lyqYqPn2o7jkSIygXUqlWGojyFUJGw\nqrCC8pykPDNrhqZpESuZNRPpMC/ygkhCEXHsF0XGOaWsYAlL05xzkOf5Aw88/MZHHwIA7O7uGnq7\n3WqkaarIpFqtB0EgOBYcUyrcWRRFAQTrb338wTjKLFvFUM/ycGPrxsbWJibs6LHV83ed1XV17c4d\nAOh999yfF/G1a1dW5pbyDCVJhAAAkCmqRCQEAFpcXFbVoaZpo+GkfzAxdHswGlfKtVs7e5wykmR5\nHCECzbLlI84ksH2w//o3P3rj9q0wiZCq6pp0pl577qVXCmr7Xua5PSBIuVwWMHXKMkLIrDXGk9ls\nY8uwq5pE9nu7w36v0eq0al1N04a9ydL8SjDzn3vuhUqllkRxcODurmV76/sqMRy7HqY0SIWmW/Pz\n8/fff/9Xv/rlV199Nc8TSYa2bS8sLFSNuj0bj2ezse/Kmo51VQg+CTzAqEywpkgMCD9LEKdYkvRy\neX8wmOtqtVqNFlhwHEVRFOSMiapcTuPe1vpeb38yHvnXb2xIULpz806lsVgqlRRFuX379vHjx2ez\nydbW1ng8xhiPRiOEUJqmh3H3fr8fRVGlUplOp5VKJU6zIAgUTQ/DUNO0IMzjiGcpr1X1Vqtx+bUb\nR462KlXjO0+/IAArl535+W6zWdc0RbDi6JGVoSBxkNKM1xuVuJpISKEZBwxJkOV5lhUploluaUap\nVCnZrMhbrc7+wWgw6PWGXiKIZJZsXcOKmrojFqetaklWHdd1icKxahMhKE0BYlGQXLlyrbezY0CV\ne4wQgu6++6777rvnB9/2llLJ7nRbd911RtWUN7/lTU5J39y6tbfvpmkCBCJY4wyrspMiEDA6TROv\nyHOChaZSWUoRUEqSUdPslq5XVaZkfuGGzGdyESVuQSMAKWNFFIeu6wZBkKVFniTLCwu2YczGY02W\nG9WqhJCEUODHtBBxlMmS4VgNy6jVqwuGVltbv7m5dTtJPUnhlAcIZ9159eTpxbe++Y2aLA16+yzP\nCEKj/nDYGxMoS5LCGIsTP818ATJJgpIkIYRNq1Sp1iuVmiwrNE3SMMzDsIgD7CdSWqA0r5fLzWZj\n+diq06wqFSsC+bHzZ2TLKHdaWtmZRrFsla+ub1WsdqPSlZE26g8m456mgGbDsEwBtUoGtDsb+73+\noGzpCivi/m5NEYZaFhne3To4deKcKumvvfzK8uLSwvz8qe6ReQOQDGtIzxK4vj2ehEWBratXr54+\nfbrdbhuG0W63XdcFAAwGgwN/Ggsas2IYuEGRYkONBb25sxkXEYMMSLDAIqY05pSrilapAQoN1ayV\na45pQS5olkpYlB1DZCScZGs39t1pVmTSrdt7l66sXb+1k+f54uIixnhtbe3kyZNpml67dq0oClVV\ne72epmmMsWazCRxna2urKMTRo0d3dnYajUae54dgNmEY6rqukGoUsCRmc3NLnU772o1XT59dkrX8\nhRe+U6tVKpXSdDbu93vVWrler9ZqFZGD2dBNw6xZbS90lgiQEj8FBaw5hqViLBhnBcbYsqx6vd7q\ndLGkUcaTOMvzXCHEMXRLk3UJiTQKxmNbNrqVLkgAykVZ14vQQzDTFKJKcujG1y/fuvjqleloXHFs\ncvHSy4Zh+L47ngwMQxlPRt1u+9z5M6+8+LIkwwt3z9WbdprmaULTWMiSPHC9g9EkDIqUy1g3ZQUW\nEGcCEZRRoiINYAPlReKmU5QLRigtIoAygmWEOaV5mqYS0YqCvvD8swgy29IEz3VNwhgLngue9w72\nbNuO4xghAqGUJrxcrqqKcfHi1xynTClLkiCK3cXl1txC88TxU4P+fq/XCwLPtm1VVtI4y7Jck41B\nf8QYxEiGmDAKCppjohIsjyYey1m9ZrQazYZTU1UVMwY5O7O0XDBmGUa3XrdMXTK0ncEe49xLwleu\nXHSTsNJoZmk+ciOouifP3R1MYkMxcVlE8RTyolLSDItEEZqFVLerXGy6U884oS13m6SIj7Rqa/vD\nG9evHz96pHp3CXAWuDMC2OJcm6bayYVVRzau7+xfuXzLS2OODCjbTz/99Ec+8uH5+fkoDprN2s7u\nhqqqs9nsYBZwzrGuCAkzgmRJh67kxuFxBSPIiiIVQgjBESI5gDHntVLDUKwwSPIkBYwbqqRp1nyn\ndWtvu4igP0sto1pv4DgGnGFZL08mk/sfuPe5557BGB/mTm9vbx89ehQAMB6PTdN0XbfT6QCMe72e\nqpJz585duXbdMAzGmBCiVCrt9foAAIKN2TSIo+LY0QWEwfXrl3/4fe9zvYHrTs+de8NoOLz8ymtz\nrebq8oo7mY4nQ5iTIAxplLQrNRXi4WDmx6mGlIVmeSYDlwDAmSIRAEBOOeB0b/cgjnPTLEmqQxQd\nK1rBRJYkVdtIkshSjJJWKsICcGCr6rQYEiSAoAQrjuRgikCcIYCxAOjmzev7+ztPfOkSQqBUdu6s\n3Wi2qpZl9PrrAqbHT6woijQYDDFSi5zs7045B5TyomBZViRJliRZmuZpmmdZdhiUxhhjjDnnQghZ\nliWZyQqUFSjJCOP/ht5DKed51mnUTx490qxWRJHTNCFAGIoMYOqUVAFyLvLRaHD16tXt7e21tQ1F\ntirlRqPRpJS67rRSdRYWupQlf/6n/5UAdmRpsUjiLEzPnTx79sS5NCjW17c9bybJQNEA5UEYeWma\nQii5Xjwce8P+KPRCQ5Hn6/WGYxCWN2rlatliRYIAdWcjRtPAm6ZJsLZ++7nnnlMUZWtz59bNNUU2\nx6Pw9Ml7125fj3zf0GTbVHVVMjSpZJm1ihN7QbvRnOt0eVbQNGs3mnPdLuQCCbC7OS7bBgIMgcyx\nycbGVcD9l194ViXAkGVvMt68s+mOZ5ZWSv18MpnEcSyE2Nzc7PV60+m0VqsdAhypqmqaJoTwMINQ\n07RqtWoTJPI4nE0jzy3SoijYdBbt7A5oKoJZ6E5cmlHbMGqVkqbgIg+G+0NLM1WsVSuNZrObc4FV\npVRreJ7X6XRc111cXDw4OGg2m5zzRx55ZDgcuq57OLmO48R7e4dDWl5eXl9fL4ri0GB0XTcMI0kS\n3/d7vV4cx6qq7u/vR5FYWFgYDAbzCx3KsjD0Ot2mohCExXQ26vV2Mc1AFsuClnW5YigKYCrkVVOz\nFdQsGYutardVL1m6ECKKopkfbWz3PD9WZNUyDAlBkaW4yDTEWu2yUzIxkmmBixwJjiDimNB220Ii\n88bTNGK2VrH0isj5dDwiK6uLjuOY5ubRYytOyfCD8cLC/HQ2qjWMOJlxzgeDg/Foury8THO8szW6\n+6GzPEKqiDWiw0zkWZ6lKaU5EBJFjMVCYjJBUBGaLBSCsG5ixnPBKSFAUSVFUQCARc5OnlqVZdmy\nrLJtjPr7nHPAck6pacNSRRYwlBVdUQGAuWXrRc5MvZ6nGCFJVbBEdF2zVFV1XffI0oKEhErw6uJS\nkmTXL133/TDxE98LTFPHhGGSUx7FSYCRXORU1Ux3Fuxs94a93fl6XUMQJDHK05ilAokwCaHgme8b\n3bYFkWlYYz/s1utnj5380899aXNj78SZu/a29wm/ePxop9Eoa7qUJFiAnKXUnwRpGjdMpyTjdtmJ\np+M4CO1yhUP1xtrOiZPL5862jq7OOTZaXqpB1gj8aZYPI+oeO3ni6PGlneGSgNjzY5LRvY1tCaSv\nvfaaYRic80NFz/McQljSTSBA7IVelDIBsKwJhC1FUyilSVokKUeSUCBLeRSnYRJHNM2jgjEmQ1wr\nlSmle3t7436Pp2mnO5cWlNMCIBYlIZRILoqSrjPGoihaWVm6ffv23Fyn1WodP378S1/6CqWUUnqI\nI/byyy9TCg5flnZ3d+1SxTTNw4SiUqk0HE38IJpMe42GjjC4euV6p1NrNRZvXn3GsoxXX32ZUfqO\nt76tSNI7d26t3bmtKkpJKggUZQtZmkiCzFAoqij1WgnxSLc0UnEoF34YT/2ooIwxlmYcISbgIVwf\nI4RYlmUYRpQGDIv90Wg4C704A5DuDvZn8ezR19998fptd6cPI1mFhgwUCSOVYGIYmufNlpa1IPA8\nf7SwMD9zJ9/85lOLS63NzW3HKdm2PZ26WcYCPyNYd4ieKRnWJIxUnIm8yFFBFYhAgrK8SIKCtwAh\nCkwxCwWlTJsncczzrACQHWIJCg6yLCMIDg56pr5ar1biOEYIqpY5GAzMFpC1zI/6zfrc4nJDVtC5\n88eHg8kkGFy7csNxnHvvvbvdbhOCi5xjpLz9h97yyiuv7e3unDp5lubiqW8/k6b5vffcj1iiqioX\nRV5QyhIuirxIoygxWw1dD/IwnIymME3mKqU8iRUIet5YV7UkTxVVhpxXVaOq6J1STcWKrBo0Sk4u\nHZG5MdkbBwP/1b2X/+Hf+5EgCGazGecpISRPRRwmSZI+ePLYaHIAEr9VrxFZTwvgp2Bto7+46Lzu\nwXOz2X6Rmyur9dDfWFpaENQ7/eDxbneu2jLPnT+GuHTltatakXHXnYnk1Vdffc97Hp9MR5KEKEtH\no1GWZVW95vpekmWmasqanjMQpxnJmZykEiSmbjGIqSAZFTIgOta9ycSxUowRQkhwWuRpFLpBEFhG\nuVFzrt+6nRUJlJSURhrWPX92z/l79/f3D0EpXW+iKNLS0hLnfG9vz7IsQohhGKqqXr582XGMM2fO\n9Pv9wWBAZLVcLjMANzc3F5dX9/YPDFvEKWq2yrKMLl++cnT1jIRLd24ezMJJlieL8wvtTvOJP/+8\nbVqrR5YVSSYSk2QjTTVNyTAMLINXHafbqczGRans6HY5TPKs6DPmU0oBwlhSiqIo0hRArimyYeim\nJssE7sQTSNTeZAKEgjSzoOHBbEh5hHGhK6hkWhA7mGOWFZquthtVYpr6aDS4cOFC72AnjsPH3/0O\nCEW/3681ND+YHjt2ZGnJdF1/Mp4hqDQa7TyMRVZgChAEgHJQMAlCWVZozCjPEy/JvAwochEUKU+z\nPCHLdQA4Y5xzijHBGBYM5jkdjUbr6+sLCwtLS0tpmkIIEUK+75erjEhsMhmWy45uSLajGaaU70VA\nKLduRq1W/INvbXc6C9vbm77vyzIJQ79SKU0n/pWrlxjFx48fN41SuVwxNIYwozTngglRIAQOgYYM\niC3TAYpSsm0kKGdMghAp0s6oV69UiyyRFcLTHNICJZlMGU/z8STY3jl457t/+NQR9u9+9z9WrXKe\nMc7D3d1bm5vbBKvd7rwmGwpRsKattGtrNy6HM6+1eFQrVbyEZUKaRfQ7zz/9th98yze+/lXH5otz\ntSSZ3HPhvitXX6vOnwxSd+egIBKv26UNGVUMfaXVdDENgqDZbBqGEceBJElZliCEQE5Zktmqtnr0\neLPTnbrBxvbOeDxWGNcMSzXsQkA3ysK0kImGLMJCV1cNSvM0TXzXK4oMAm4aGtFkQ5M8d1x4sFRr\nYokrOv72kzcPUyx/7l/+m8OLDzx86sLd56fT6aHDh3NeLpcNwxgOh7VabXV19eDgIAxTSmnFNKde\nuLe3d/T4Sc55s1UCwO9066qm7O7uv+Hhk2kiNjd6zAguXDh//uy5osheeG3nr/3YW3/wzW/Z3d65\nc+cV21F9X1MkDkWqq7DkaK2mQ1hSrVcNuzSYhRiKNE2zgmIJY0kqCooQMkyjUa0YhsYLmsSRkJFl\nlYtUFlxpNxpxMpl6u4aMr1+7NPULWbY11YqDIg5ih+iGpiFkp+0j9ZDlslWfRuLhH3j7Z774xd4s\nYCJ8w6P3GRbZ2Lyh6WT1yHy5Yo7HgxGVQKXuy/w7a6/wKjny4F37Sb4+TWStJKlOe+7oiy/fjhL5\n/gfeceu2Ox5Le8Py2CtD0t3aHjum3qpK509YltQDSr+7gjf3XzAraaUFFo/YqpVlfLgy16lYWrtW\nNhU8G+2cONKdDDYlFP3ZE6+oFjh9/oRVQqwY0nxXQr25ZiGrWru9mmeGKi1ub/pOqSZpRXMezy3j\nUhVACPNUzmItS6QoLGazyZUbLzAYSEpx4fzKySPN3salbLa92jJX2nP1Sj3nAOrWYx/80M0guUnZ\nvumsnG0C3V88Xin4JI57nYZGmH/XyYVrrz3T37luq/m95+cSf/3qxa/Wy3Grlk2EsXD6dXZj8c6d\n3d3b63pe1Bgz/FlbYmowOdeoKJNJOcrecvyuY3L59d2TKyh7ZLHaBlOz2IXJ9YVuKKt3PvThc+94\n6MSSDa4/+7Ul07j8jede+/Krqqvqvrmzd/u++86sLDcjd3eppe/dfqGmRHJ2gOursVza9MLbw8GU\nB3KdmG2MSrF2vAkXy3nTicsVVy8PUKkPamPcIY4yTtzl00fqc3UoAwrYxsbaIe7vdwkA8LXv3EBW\nAxiNqztuIrTd3n63XcmSyZt+8A2v3d6uH1t95pnvzMny3Ux87PjJv7a0+ubFI72DMWgvNOzulUuj\ndmM+jrJaq+nUyzmml7e2Bv5s/thqud36wte+cfR4Q7Xrz750ZeimzWZTloyVpXODXjHfOX/PhUfL\npcb169cbc5WchaPxXhgMAm/oT/Z0Qu8+ucLB+PzdC3aFJ/HB6VPzqwu16XArT6YSaUiSxWERpv2D\n0Z2d/U3PyzS1o5B6VavQYS/fvwb7lxet7K0PnrUII5PJzDQqYZaOx+6jjz566dKl0WhSr5uOXR4M\nRnnGZVltt23BEWOwVq8ghA631TQaDVmW+/3+eDxutVq6ro/H48Md32EYZllWrVYBALqij7NBLFIh\nIJZkykWc5GmWD/oTznm9rpqmlSRJmqZCsFqttrc7WFxcrlZsgjWMVNuqBV5/e6u3sixfuHDXhbtO\nsYJubOylcaJIcDZxGYsx0tLMLwrqBYO9fYRISuSs0zBlGWGEOMNQZEWOspRxzjN3kpmqbhiWbRvl\niiZpRRIzxUqT4dmz51vN9mA8eeWll1945dWNra1ateEgjWCDUTgajYYDF2G2tNw6dWb5+vVrh1s0\nMMbNZlNV1Wq1Wq1WNTuzypZTPbq5qcymHlImp883zt/z3hsXv66XHKdeV20bqjoo8hwRpqgqKdl2\ngxCzVosxxkWBx+NxHPM0zzNaFIw1yqVjJ4+PhlNJI4PBqNaqaIZCeU55LiBrdRrz8/P/r//8LPif\n6SfffKI7N+c4zt5oIxJgNvOiMEWVBmJI4hkABaIoC6JwOsvS1C7VutVGWhTg++i++053Op1nn31W\n07ThcHj27NlKpaLr+jPPPPPAA6c0Tdve3s7yfOHo0Yu3bocFHXuzaZJaK8ubW+vzHf3kyZPfePLL\nAIALFy68/NLVxflqc6WUxdnu9k6eZk7JQlDsbm9EUfSmR04JIfI8P4QHhRByzjVNm009jEkU5/sH\nwyiKqtUqQHhjc+1wz4Ou65ZmmKY5HY5msxlCyOgu7G1sMcZOnjypqupzzz2XJEn37nsBzYtcSJpZ\nLVXyJJUlBcgq1hjxZ76CzcgPZSy//qHXP/3kV6ej6Oy5JVWxtzZvRVGyuLBcqdQm41mSRKqqe9PZ\nYDAwTbNZqxOIxqNxFiempiMozaa+aXKJqJOxW61E9VprMplgQeIgZxJFnCAoxWkBBKIAS0T3PC+J\nc0WmvhdkWSZJUrfbfvW1V2qVRU1V0kyEfpGn0J0lt29OVu9auf++exbnW9cuvbqztd5uVu2yk8ah\nXSkZug0hpoWIkrply5hA3VDCIGNMIIggIJxnWZaFYZrgzNYSjWWEKwioFOFZzgfjYMqGJcsuOyWM\nyc7O3mAwSeO4Wq5UKxVFUttNOcuyKIrSLOzOV1ZXV8+fP3rzBlleXo7j2NAtQ7eiMOnt9wmW++42\n51wIqBpUzdKiiFSTLC+tOs4j586cnk5WbUNvNatpGGiqore6a1shxCXddCSl4JyXqwXEJUmpLSxV\nvSCUVdkuWefuOu37MUZEVnFzWa82HCTxtAgPhrtUpFSkhyv3d7VWCPHg3ff0B+Mbl260lyuOY+mQ\n+xg2qqYia01bgRBpkHMBYzfkoigpOtKVIEm+3wAefPBB27a//vWvQwi3t7ff8443SpK0vb39yU9+\n9gM//qFLly5tbm4en5urzs8/97WvJ1QMPW+K0erK3MF08va3vqVVq63futntdlu12hOf+/N6ufTw\n/Q8NBoPrl65srPfuuetYu1m1dcmyLAmE3wXEz7LscK+CYRhpWpiGxlgWx7GmKc1ON0qy7e3tJEmm\n06kQwnFKhxDWpmk6jnPiwr2DzoBSevToUYxx0Bv0+30HSS+s3aRZLhg/cqzJsyL0/GEYhn5AZKRO\nBrMs5vff+7DIwfXLN7EAPAeDvhtHVHDCOcwzehjmcF2XCRzHcaNaI4QkYYQEKFk2EiCOU9f1hYCW\nZWVZ7vuhZTn9/jDxsywsFFMDQspS4fsZrqi6Vem0F8Pg9mwaMQan01mWJdVaxXYsTbWzlAtWSETn\njAR+mmfCtpTHHn3d6mJXsCKOAsihKmtEyElIMzagZaqoEheJYYE0c2WAw9C35BKlFEEEBKcFZ4xx\nTiGE8+VSq2xLqsWRlAspAVKu2MCunziy5I4nN+7cmYwmsm61aw0qhKnphu7ouu15szAMVQ3X6o16\n08yK6bFjJx988MHxeGxZlq7rQiBZli2rRATc2NhKk2x5efXo6rksywFAmmpDiWRCSKYV0vzAi/Ik\ny6cBwTilynCaHS5+RVEwaJbrJcOp1iqG64cAgDAJNUvRTM227Wa3koCJrJEydgqehYmvmUrBs79g\n5b7rbky0nb2D51/+Us1QbYInSJgKUBSuQUmW5f3NgaabhqRQlEsCEohziL+fT6PRmE6nN25snjp7\nKsDYtm0ZsxdffHEwAAsLC3/yJ3/CGHvLO94xCEJYqfa2tiKeQUz8wW6303z8XT908dIL+3vhsaPK\n9tbaxdc2H3n43AP3PvD8t7/TQztlB5ma7M6GYeBVS0YcxLIsa5p2iHd/aNKyLGOoS5JmGmhxcZED\nqJp6lGS6IU/GnmmaNM8JIa7rhmHoOE6n0znY2qjX62mabty4JstySVM8BC6/9IJWLnNEDMNYXlmJ\no+j27dtDdzocDknZLl2/ttaozT/0wEPPP/98kRStet2dzNzp2HGccrksOA7DGEKoKJLv+5wRQ9Uq\nTmk6nQauV6/Xq6XyZDgyKhpGCmeo5NSyLGMU6o4tES0YRyDHBOpR6rluGie0JhuGZWQJCvyCsUyS\nZIwlReEAgCSJLly4AAROk6JWdWzbZoxVKpXHHnvsja9/aDabbG5sQcoblSoReDry3JGLbZVgrdGs\n5gWvN0rD4VjXLAhkU69mWcY5EBzKMjNNU1V0RVFsE1tmCRAl4whBUm62qwvayTNnw52t9e1tdzSx\ndQMr6mQ0jdJ03B+0S0aR51EUpFmkaYpTMmaz8a1b1xUge26wtblDCKlWq2EQ12o6RpIs2qG7Pxr5\nmkQlCNIEUcrTgBYZDf1I1Yyp5/sRLYpiOp3aTjnJlKAIZVmmlAVBRAgxNXUUxJatyJoWx5EfBYwX\nEEJB1OZcZfMgCNOiXK4sWqXpdLp05HjxF726bO3vXrx0/aUXX52f05fmFy3DCDw3jQOaRxBCrJgH\nBwfzC0uGYWT5f2suyzL472csfJfyPL9x44amQdM0taUlWZZrZePZZ6/9wA8cbbfbL7545Q0njz72\ntrf92r/4taOnTl8eDIgkarrs9jd+4C0/vLqw8C/+6S/qMjh9/NjOxvqpo+V7z5//zCc/s9/b1WTp\n/OnTR1eXAEsHvc2ygdM0J4QcQnwbhgEAYIylaWpZ1aIoLMtuzc1lNJ/6rmGbx0+sfONr3z78UImi\naH193R1PAs8PgsCybJXALMuyLLP1eqdRBTRLkuTYhbujNCmKouLovIg1nei2oiUykaFSxMWx5WNE\nSLev3WlVW6oONzZvDaexvGLVa5rg+BBSplxxDFMDuZQkiUokUdAsivWuYuvGsHcgygvNZisMQ03T\nS6VylmWSJJfLFZZhQ7YwUNxZXKqEkGiKUeIQ3ryxMR55tq1jpBg6IZIBEZ9MRkeOdEbDaZIGXGQC\nZIynpbLV7cxvb925ffPW7va2Isn1coVnIo8KCelFIWcplCUNoajZbMdRYZl1wVES86IAQgiEIIRI\nkiRJArqupxxOQ5oWaZwXgsizOJY1fTobXH35FYylI0vLmmXv9UcYwFq54lg2kTMvmPjhCEBarTXL\n5fLuzv7e7uDC6fP9/vjatVtJkqiqyhg7e1bb3T2gQEtilibs1s2NS6/diqKkVmscO3qiXUciZXbZ\nmNBZmlIBsevmhqlQBIRgtm0CAIIs4QglrOj1emWTSKpiEGSXLEJAGAVJEepQKpVavu9TSgghk8lu\nu708Gu1/vwF89ktfaHcX3vHBd4+3N5eWT2m6BLHEOdUNRZaJaZphLC0tr/pRvLa+kTFAGUwL+jMf\n/CG70drf30cI7e/vl0ql8+fPb25urq6uuq5btbRDPFPG2EMPPTSbzYIAvOlNb8oo25lNW5IkHEum\nyNERTenJE0e2NtfW1yYnTtrHj6309sfvefc7j6yefPbFF93pTKmXJV2WkGA0BjwjhGdZ5nne4dZe\nTdMkSQqCIIoiQxF5zlVN0nWdxTzLEkMxmq3q+973PtM0LcNAHAjKEBdxGE0mEzcKhsNhHMerq6vt\ndvv69esJzU53OqE7krPMm4w3WRAmsa3gk0fatbJM3KlnGfY9F+59+smnVVlttatZ4RuaaRrcc8OB\nMml36hAKP/YNU2m3W4Rqr7zyymgwJAgbmq7KiqkbJdthTNTrzeFwHARRqVTxvCBN81KpAhINMJTQ\ndDSa1tttq1RVNbN3cOBPAoI1VTWjKMtyr1I1bMeQFTKe7AkIIM7DeJJkrm4uObYqKfza1StZnNmm\noUkqFIAVTJUUXTFevbM3HnmShEfj/Vqt1tsfWwYOg2KxDQHgiqLouixLqiynjDEIYYqtPAKuHyIE\nylVFQmw22rl5yc/i5PjxpVanu769s7+1UymV5xcXc8oLNnP93mTaUxRDVVVDLzl2UavOnzh+cjqd\ndtpdAMDh19jqypHpdOo02Um9nee1NM0nYy8ISKVs1Nt4eGeXR7mO1YOt/TClRDG21vYkaNWW23Ec\nAwkIIRKamKapmipDTBAk6wbPIqJKlaojpsx1JymPLWt1e3scxxPG2Msv3yiX59bX+99vAMcvnC/X\na+fOnXvBSzjWJl489hLb0ZxaQ9NVScJHzmrVWiPa2g54njMgoBTxIoxzOpUtyzrcLbm8vCyEWF9f\nb7fbL792VWS6YRiU0mq1Sil99tlndR288bE3/NFnPqVX689cuoxUjdBCJuzk8ly33fza159YXtC6\nrVYWx7zIm/Vav7f3vve879qVi+5slMSzwJ8iUPR7WwhkS8vnsiw7PFeq0+kc4uCHYahJsaYpnIPB\nYBTEPuMF49lweLC17tq2bWha5AW8oIvdOcDFtWvXaovtArICskwUCcu8JNgd7M8ib1EFddtGloRg\nBiVab1WXupU8nZLJaFyyS8eOHP/Nf/lv3/zmN5fKxmAUlp2SYlQ2t9YpPSiXHSKJg4MDp2QsLMwb\nqtXvHUABFhcXNUdVJNk2rYW5+XDGNNXwvXA8mrZb3cCPVEW3LMtS63leBMPInQSUctsqEUkZTqYN\nu0wIVFQ0GOwOx9srfL5csUul0nC02+nMSZKEICeSaHeqllnOsrzdrC/MLVq6NTjo72/tx2H0o7/x\ndQDAX/kfZv3JP/jp1Xt/7PiFN9m1NiYSAAIAkMfBdPvGrRe+tHf7IiEY4DKlBZaLVrt63yOPKo1l\npbqkmlUsyUAAAOGZPHtwZ/PgzlV359bTX/nSSRn1+uu9g6Ft1Ru1eUMrJKI3avM317a7p+794bd9\ndOXMPYpmIIQABEIAzvI88SZ7l/3Bjdnu5SRJwyDNslHFtCuG1SzVe9aQ4EIxLEsv1StN3VbDxAOy\n1Fo8feoNP9zqrkiKCiEEAggA8iQc795Kp3foaC9JIzUhjPHd/dHH/+CLAICf+H7F/+/0f/zGZw4v\nHn773/4f///1v/8e3ZAZo0yYvcnkb/7S73z4L2cCAPjn//vfGY1GnU4HQpgkydzcXBZO5+fnn3/1\ntYsXL1cq8vHjx1+7dutnf+lXuwurK8vLsqwAICCAgrPWhccefseLLzz16Y31O5xhdxJfvnQDKs7t\nOzcwovOd+omjRz78y3/4PT3+/j/9Ww8+/tdaS8dlzRSCQwCzOOxv3Hryc/95NB6U644QfGd3S5Yb\naZqOBoNrl664k+n502c0RX3++efnz64uLy8TTdru7QgCWvPt/WHv5s2bH/3x9y6uLEdZEmVpbzwk\nmmLr0Bvvwne1zV/4pX+40995+ttPSojWLP1Ip6Nw8cUnv9GaP1mbO50KZTA94Gww18GLC2aQGNOp\n+8jDj165fOPVV668+ur24+/6AdsubW1d8cPBhXuObe3cOHr06GySluwuhuayWmKATf0pxUK2lN64\nPw1mjVbjlRduHju+UqkaM6+XFbNKTVM1GCd+FmsluymTcpHJtBCPP/74t7/zzXPnT41v3jAMa3X1\n6Gg4eeaZb1fKjff+yqe+x/VB83Q4nv67f/fvnnjiia2trTiOu93uI4888pM/+ZNveMMbPv+v/s7Z\ns+dffOYJIcTikZN3/dD/ptZXXnjhhU9/+tNPPfXU3t7e4TlF8/Pzb3rTmz760Y+ePn1646WvPfF7\nv5iliQAIK7okK0Q1ls/cf/6N722tnBsMBp/+9Ke/+c1vvvrqq8PhsCiKcrncaDQefPDBt7zlLe95\nz3toNLv65T8427bv3Lz1mcsvvf3t71xcXB4Nx7NZ0D8YDocThJAg8K3v/RsrJ+9bX9/41Kc+9c1v\nfvPWrVvT6TTLskNW73//+9///veH3ugbn/7Db33+pT26jRD61BMv/o/3/v+QhBCPnz1m6KWlpZV8\nzvnKl5+6eu32/4KPEOK9r7tPxjQIJlfu7Faq6jPPfv3/+qM/mEwmmxt7X/nyS3//733sDW/60Qtv\nuP/a9Wv/6T/9p2984xu7u7uu65bL5YWFhTe96U0f+chHTp44MVq/9vXP/Mfbmzd7vX1/MlxYWHBM\nS5OV86fOvOlnfu17JhEA8J3vfOc3f/M3X3rppX6/X6/X3/zmN/+jf/SP5rudz/3nf+X6/rdfvri5\nvXO0UiWEMCbCIMqyAgDEOc8zupH0X/+61+1troXj4T1nTva3NsPp+Cc+/GP3f+jBa1dunVq9a+fO\n/vad9bpj+bPhfLcBf+rBuZ/4yZ94/rWXLl+9PNdtgzjRBbRVdau/rVh1qLb8XLjRDEO3URPNuuxU\nT9++tWaaVm9/2Gp1h4NpuVS/c2ftvruOhNGECV/TkSzL9drcZJQCoRiAyKqSZQmQgG5q/XHPC7xm\ns762fdBoVExLixM3zT1NJ5atEoIcuzEZhdXywsG+e+rU2Wq1fPXapWrN7qjqxYsXIcQry8eKggZ+\n8r5f/dPvkd0TTzzxwQ9+MIqiv3AuP/+v/o5t25dffO5dH/xI96EPHIxmP/3TP/3EE0/8hXOPEPqp\nn/qpT3ziE8ONy1/9f/8yF4BBlBU8Z+Dv/dsvPvfcc7/2a7/2hS984dBf8RfSysrKb/7mbz7++OO3\nvv7Jl770SWmpo+v6dOKPx1OCFUq55wXNztJHfv4fZ4X42Z/92UOPyl/Iamlp6ROf+MTjjz/+9tMX\npCaklH7xW5f//zOA95xcadQ7CEljK7929c6NzeH/2gDe/8BpCJM89ZNCpyz+xL/5tdG499RTT42G\n7re+efH5WztGtflzP/dzv/M7v/MXigJj/DM/8zO/8Ru/sX7tlf/zl/9mFAWP3H2vEKLIcgmiVqP5\ngf/jt79nEn/t137tF37hF76Hj2maTz755LHVxY///b96MJhNfb+rm5xzABBjLM+KPM8JkRVFgU2z\n3agf7O4Qmt9//gymBebssUffcMXf/NR//SxLAI2KM8ePvuttj80me747JHMrumrnw+nmLBqcrhzx\n87S3O8jMcqPpZAL6xThOOROJJBUCiDTlakrL5cps5jEmzp49C8/izc1tsMaqhqpB67VL186dOxX7\ncWu15vW2siwbYVzRK0gjGHLBc5jmIEq4H3a6BoS5EMA0dAhEGqYyUkvN5kK3M+xdgQIxSpcWFm/e\nuhaFbhxNQwTanWaj3mo2u+7M39199Xtk9MILL7z73e+mlP5l0zns7d254b/+kbcuvuFHX7l09Z3v\nfOdgMPjLKnPOf+d3fmd9ff2LX/ziPe/869/58h97QTIL4oICAMAjjzzylzX8Lm1sbLzvfe/7rd/6\nrb/5N3/q4sVXWEF3tiaeFwgOCIZZxg2z9ZGf+yeb27vvete7dnd3/xestra23v3udwsh9gf9llHP\nsr/A7/n/kOLpqLq0uru7P3HHdQP9/6wvo6halUtOp1G996WXn7vywosPPHh32yk1zerDb3yvVW+/\n5z3v+fznP/+XNWeMfeITn9jZ2fnMZz7z8Ns+8OxTnzt2+ux0PAmDgECU0e+1mU996lPfr/0AgDAM\nf/RHf/TGjRuM69Ph9SCK5VItSRJCsOM4nNM0TS3L6nQ6iQZDz684ds2xLLtkKkQUxY07G9++udHf\no5CCNPBMeX84HDo2AUJBqkn1EixQMPFEThPdMhXDBAhrOjEtqVzRqnWlVFFsRzMN2zTKa3e2FuZX\nTp86f+zYsXK5XG9UqzXn/vvvTrxZEUdFCFI/NSQjnoVl08CsALqkVUyzaim6ghHEgoMsKYKgUlEl\nwmQJVkplSy+nIfAmtIjVPOGAoWF/6FhOniW+O0uTUNOQ607uvfee02dOTiaD6WxcqTjfI6OPfexj\nlNKFhYXf/u3fXltbS5IkjuPr16//3u/93kMPPQQASKIAA3DiBz44mLiPP/74d7X/scce++IXvziZ\nTPI839jY+M3f/M1yuXxY9NWvfvXjH//46UfekQJjf+juD/2RG3+3xxMnTvzyL//yV77ylf39/cPD\nKg9n+k1vetNhBc75z/7sz165cnX1vjf/4f/nT774+a/3ezOZOKOhf/3q5g+858fiLH/nO9/5Xe3X\nNO3nfu7nnnnmmfF4nOf5cDh8+umn/8E/+AeO899ulmhKGuesEAAA8T/T/ygK8ZcQAMDW5KW5etmU\nu47ywOnV/zUfAMDRle7DD9/97vf+4LkTJ2q2Mz7YD2fj08dW77/7wl/56b/3r//1v/6u9hNCfumX\nfml9fT1N07W1tV/8xV8khBwWffazn/2t3/qtD/74367PzW/uD/y0YEjOGUrY9z58/u7f/btLS0tf\n+MIXwjAcDAa//Mu//N2itbW1P/uzP/vAh378Q+999wN3ncOIHALCyTKxbM0pGc1WeXm1c7C7tXbr\nGitSyzDH4/FBf7y5s/+nf/75a5f3VanVbR9vN1fynO7u7TCeEpmRQnAsEd00cg6mgbdQX1hc1hI3\n4tyzSkbZKpk5H84meRQhKGGk7+3eefBBxTRVIYDrzjRNYyzvzjX2L69BgLvdZp7CIysr29tbx46t\njsY9LlQhGOVFnkUy4JgITCBjOc8znmeIaBpRYkjTII9m1FJcKDwVazvbg9c/cupgZw/yHPFiZWEO\n1MquN/7Od55bX986dvTE0vLS98juxRdffPjhh5944glLxax/affZP9/c3NGqSx98/N0PzMPh1o1a\n2T5x/kFr7shH3//+g4OD70r813/91/sbN1/4k381He4fv+f1f+dv/dRb3/rWBx98MAxDAMBv/MZv\nfOxjH7v7kbcO+yMOZQHIoc38yq/8yiOPPDIZjZ76ylf/2f/+C2kUtNp1p1Z/27ve87Wvfe1DH/rQ\nJz/5SQAApfR3f/d3//E/+j+q1fpkMqOFoJQHftKaX7zvDY9+8IMf3NvbOxzJ0tLSl7/85dWV5ee/\n+oV/8w8+cbeih8L6ob/+N173Tz7+D//hP/xbP/3TAADHcTDKOAAf+oFHgiCYTCadTqdarf7en3/p\ne6Tx0285/+qrl0+dWvnYX/3wdOL2+33Owfra1oOvu3Dm7FFM+FQMu92Fb/7+P7txfS0IAkz4/sHa\nb3z28vfw2T0YSgYM0ygb7SsKbrebt2/fqlQqZnuZCfArv/Ir3635+7//+x/+8R/vXX/2if/w+6tn\n7//VX/mVo0ePfvSjHz0s/fjHP/43/sbfOH36oS/96Sc7rRYUYDaZOob5Pd3NZrNXXnm5Wi79yR98\nYm5+5Z/8k39y586dP/7jPz4s/cIXvvCJX/8/461LX9lar9SPFDmN41CIQtUxhEzVxWisTPp7s/Go\nW68JwCbTmWWYsqSlHPlewimbDccKzi29GAz25+eI7/eIrreH4wyRUrstFxwJAKqNaj9K0oSrFGqS\nomEuh0ou8izBMSRzc0t5xpPYU1RlPB7X6qUkDfIiZpiVSmWsmoSo9e785ZvXJVNJWJLNRChLWZok\nUeDYOpAA0glFwJvEtOAqAXlCizQXlNEsDz2XMba4sILBuFFt7Pd2IOe6KlmGDDDc3t6ESDz88IOG\nYe9s79z1P8vOcZxPfepTcjHb+eZ/QYBZJpGKyf6lm5Obz3Iurjz5p6Zpt4/ffePGjc9+9rOHTe6/\n//5f//Vf337lqV/8a+/98Ec+iPNg66Wveru33viTv/LzP//zv/qrvwoASNP0D/7gDz7ygfdcfear\nOQOUi7Vrl+5ZbpY0/eMf+9j1i68e9PdUVX7jY484jvHCd5566lN//Gv/8f/6pV/6pUMDAAA899xz\ntUbr537uY1/4whfG4+nBwX4Qzt7zkY9ev379M5/5b74aWZY/+9nPVmzzX/3dv84T3+sf7Mry3m60\nvLTyXz724Y/843/0Cx+5sHHtZRVLVhlPp1OE8tnsIAg8Qhqu+xe4QRVDPX3XMdM0OCb96fjmxtrx\n48cfeMODAIBat3pKPb4zVgnWDqFnwzBsNMvtVvf7+ewcBD3X9UO3BKxHXn//4rHF57799O3t2++7\n9x2f/vSnD098AgC87nWv+8hHPvLtL/7hxrXn0zQ1N1/LkuwnfuIn/v2///fPP//8oWZ/5jOfWV05\ndWd7L6UgT9Ktjc2yZX9Pdz/5kz+5vLT8ix/7q7PhYP3ab3e6yz/xEz/xXQO4fPmyXaktdprdWkWr\n1IQQ48mBH7gcSOWKzUXSH2zddfbUaDRq1mqCsjiOVcUolUrd+eVCDnRVi30fsWRv+/KLL/WPHy93\nOi2ytHDv7VujMIDn73qIIOCHkYGkWTDmaZ4DL+IYaIokaY6tESZLSDlx3GIUJmlWKttXrlyMk4rr\nzgDkUTypL8zvj0d3nT/LZc1pNXPME5iqhczD2BsPZ9EUoqaiy7kkUp7rkSbLBgZqkXHBeLlkA4HK\nJSOnkWNWjqxAmUgLc/MvvbJpmepBb6dTa0kyOnbs7OLi8s0bazN38j2y++hHP9pqVEff+t2Sbaiq\n2h9uHju6Ot+d6/fHcZRWSlXBodpY+eTv/qfvPuh//ud/Pp72ovVn3/jY6waDwXQ6xRiPx+P6M597\n73vfe2gAAICnn3765/7O3x7vbWmGU67VP/vb/9zdXb/5zJfOnT32jvc/vnLitFOtEUwAhD/z3wfz\nP0Znd3d3MSYzbzh1B5PpOE1or9c/efeFP/yjT353JD/yIz9y7uzZf/Z3ftw72Om064tLbUfXB2wU\nEdGbDP7tr/zkD/zgmzv7uYJJoy6NR9slp3vsaNfzzJIjDYfD71fc/my4uDR3586drz7zLcMwmIyh\nrpQ6lclkMgyHxCBSZOzuHHBo9oaT67fXZeN0pVr6fj6dlfOCgMmdGzn0lk4f8WhCFXjt+u2fPX7X\nr//7P/putR/7sR/b2Vj75tNParpcq9W2R0O/Pztx7xt+7Md+7NAAAABPPfXUv/hn/5QoRs4ABRgr\neph+bwz7Xe961xf+7DP97QGmfPNO77/+29/9W//8n/3f1rizAyH6/Kc/lflec9lGCGR5OJ1FpqUf\nO76kG8pkMjA1DbJynqbjYBpEiSQnHE2jjLa6qmM5aUAqlgF4fzocapq2tLRC5udPXfzSF32XXbjv\nXOiObl1+jTA6dScoI0FeKHlu1et2pWZZFVloiBKu5GkaQ4gloly/fn13T5MVbNvmcOKtCLa2s/XG\nN7/LD8PmfDcTjGI+Z9lEImNapHGa5CnUSQJYShNbaeuKqckWYEDCpF6taLpqWdZkjHRNO7JSo0Vx\n5MjKt771RKVa2t7aePR1D1+7dmNt7c6VK1fCID158uT3yO6d73xnsn8tDaaJEAih61euvuENb2h2\nujSjmc6OrB6NosSotp9++unvNnnssceMavP0j/zy6R/53ok/fP85pKtXrxJFfeU73251unfdc3+r\nWj73up989H0fpgJ87nOf+zf/4Q+vXLmyv79/mMX1/ToUBAEA4Gtf/+J0OlxZXeYcJGnUnlt46qmn\nvlvnAx/4wK1LLwz27sxGAwiz+fnu3Nnjo0wGlgpUya6ok8nk/rs7hqKaBqRFWKuardNHgiDI85zR\nv8DrtXxs9Q1veCQp0q3e3tve9rbmfLtaKyuW5u5603BWrjhcwN7BEEJzMBxvbe+uHl1qd2vfz6c/\nyyrNeibMux48tnzi2KsXv6M6VoGAYZVeeeWV71Z78MEHX3nhhQJqs/EkR+LJJ7/64w+/aXDr0gMP\nPPDdOq+88ortlEqViqSqJadcLlVmo/H3dHf69Olf/vnflQBpVEpLjU4ycQ9ziv9vSUJ4/eq1e+6+\na5rkQgjOeV5kmqYuLs6blgJg/vRXnxUCZjkvqDCsSmbm8XAynEyahnzl2q3djd13vvUtDz10f+Tv\ndzqd4XBIlHp26dJXzy0f23nyyaIo2tXS5fXb7/zQBz/36T89deoYIcTzvDicIVAAw2jONb0Y3bx9\nYzTsz+93Hn7kdYP+/sH+XuIFK0e6s+H0+OpKGs2SMKiW7DtrVxday/3JhFCT2w35/8vZf4bZcV0H\nomjlnE7Offp07gY6AGhkgCBB0gwiKYqUZCsHy7KCZzzjsT9rHO+MLdnjMNce27IsB9mysiiJQYxi\nQCAyGmg0OocT+uR8qupUTvcH/Ph0SY3ffG/96K+/qrX3Xmfv2nuvvCxGEnEE5oJkyIBVQG/WC7vj\nx0/USmWz05vds1fu9ljT3K5rpz5z/49eftrVXbOhcHFhaHg4GYn2xQZD4M2yGI+OBUajwaD/bXO3\nd+/eTvYsHhiUVeP5F18+fjpj+mkLgEqmky/kt+RmLO47jBHb29tvNUkk/u3Sv3MSv3Uev00W7HQ6\nEAQXIbJSbERG5I9/9POZAyf+4R/+4Qtf+EK7/faL6J1wRzHluYFkMmwbTq/dwVwaI8hsNvsWzv79\n+6/84B8gQw3yVECgTE025JvDSW44Rk8OxGYPpBOJSD27+euf+/hr1545efhoWPATEEL5AhsbG81y\n9Z2DDkDs5adeRmQNTqVubZfGx8cJfyrfaOTqhm3bCcg/GhkaG7X3TA/OH0kHY0YmHZudOfjOfh58\nbCq7vslDVbnE1zfrlEWAEMy5AgQhb8lRAABkMplbr3zr2ss/+M3f/M0zZ874bPjS+kup+eG9pz77\nFk61WsVwPBUfauzkWtV8kuVmBuJvGy4QCKRxIzEV3M3vfOE/Pmpb5h0PpTtgmiYAAHc98ujGxka9\nf811XU3X/BzHosLa1bxl2IlEYm5i3+7urou7OEppfQ1s9GgE9ykGWDLjkDt7Mnlgrzs1lXHtPRsr\n7e2NHrK6skKSpCAIjd0SjuOdTsfn8+VzOZoSdM3RtL6maQztwzHGtoBeVxEVdWJiYngo3apVd3fz\nuqLAIKgZhq7rJMGRJEnT9J3oeMMwQMgOR3ymDhqGiqAeQSC8QNEMZloIZ6E1oAbAcGZ0lCJIjuPc\nYimdyViBFAC5CII0xaZpRGZnDqXDkd3t7M31nW5b5djI/uP3qIq9uHjj2N3/r7nz+/0rF8t790xc\neekVU1e/9fVz8wcsngtfvbK5sLBAM9iB+b2HHwd++pP93+nd3wZ3DAsQBKEY7IsPZA4c/53f+Z0v\nfvGL/z8b/jSkBsLFYrG4W7ANM5EMgiD405QEAoFCbofkBI5jQ7EwALimoSXiQ7uFKkkIpuFdubKw\nb/o0CKClSrnX6xEU6QKe4ziKpno/S48/Prs3NToEAMD17R0KQXRJapRKmqb5aBqCIBpFLcugGdJx\nHA8EUqm0z+d7J1cJAEA4GKqgeVmWZ2YnVE3SdNl1LV6gAQB4SwAAAIBlWQrFDh86gSJUvdZxbEjt\nu36WY1n2LZxerweC4M7Weaev8gxMBRiLePvdhWHY6Qfvb9dKsq44COKBb9dKAQBQb7a6ojSxZwoA\ngGd/9GwmlbZt+9b64uDA4MbG2uS+UUlTLMPCUApEUM+FHBc0YUBst44c3zt/eCSVFlKpFOCy21tX\nrt+8gSxdu8GzHEbgOMfgOG6qSiaVajbaAh+1TKjV7LuuC6doDOVUVe119Wa3Ojo6gsHudqfVF8VU\nIgYBwUJup91uEzgL09Qdl25RMiqVCgQ74QhlmYBjegjoIqBpG5LqAYap8KTPJ4QQlPRHohTLVOu1\njufuHxma8CtLy9c92BsYGk+kRkOcn3DgzKAwc9/pzeWd3UJjsyiur28tLt489um3z91f/M3fnj51\nF4ZAf/W3L/3xH/2O5yDrq91aBWbpiUCAU2QG+Bnz+X8K4+Ojfpr8uSc+ePHipS996UtvPd+3b9+v\n/uqvHj9+PJFIkCR55+Gdikk/3Vwzm4bd7ms1x7AyfOCd1qdSq9MU+ygvGBCKoFCxWIn4yevXV1TV\nLZebZ85ejobmAgLak+RKrc77/BCCOo7jeABB0e+ktmdqEAaTJDkUiWEYBriA0mihKJoOhgEAUFW1\naVRJCpdlxfX0gVSGIoVOW35nP7mdHV3VYsHwyFhyYeEKSSEkhR84cOCdmLeX1kkMW1/LLt1apygq\nnhxIp/a+Ey0ehAGOJFGcYgkde+d74OLN67cWrgGek2/UKJJ49B0I5Wq91mglhodZltV1c2xsYnx0\nWBF7R48dchxHATSUJFCSJCnOwzFDtwEPokCntV2TddsBCYKJaBZWyBVv3F7bKpSQTqMZ8Pm7kji7\nf1+j0fBBIZJlNE2zXMGyLMBDYQhEYBLwUNeBQRAM+nyK2KuUduu1sp9jI2G/reslCERwnCAIFEVt\n25YkyTD7vV4Pw0HHblMkQxEBAiVMw+p2aq6nu67FBehQOOpBeKPXt3tSoVyCUER2vFave/bSpeE9\n0+Pj00rfvLi80m+Ik8PjLtDaLoqvvnqt035D183BzNtvTwAAZg8cvnzleq2c//iHjqA4lsuWNtbz\nkqgJgsBwrNSXPMALBALlchkAgGQy+e+bn94G1cqub2xkYGzvFz/7+bd4pEceeeRHP/qRoXSzt8+f\nv/p9x1TrxQrrj9/34V9/W/OeWI3GeIGfrBbLqtb2PC8QCLylA221WpgQWL90TvecvmXwPM+7aLUh\nNztKX3VcTFcMYHVz89ixJ4KhWDZXFCWV4x0QBBnWZ79Dmw4AwHJuC4ZhAAAm/EmaojRNUxWFYFme\nJEVRLO7sADQ+MjLUbouS1BsaGoIgxPN+hlv14rUFS9GS8XggSJUr+ZmZGYZhUqk0AHg8zzebzTto\nsixjFCcwFAQh4XA0FothMNKTXFr+/24qQRA8z7v/2P3F3UqxVCs1LftnGaHb/T4ZCEQiEbHX1VD0\nnQi6YboecP78RUEQOJZnGAZBkEDQh+PwkSPH//yrf12r1WiW8yF4V+0rqkEzHOZjI8mBm8vroi6q\n9gkYhl979c2lxa1oKokEaY5nuXK9Nrl/tvbGG0F/oLJbpCG0DyF3yodAEIQgiGEYd4JuAn6sWCzI\nvQ6FobBnF3M5xzJJFEoMpoKBqGMjEAS5rguCII7jNIOxJMKxfpaO6KpXqzY1WaFoJBgIgghlONDa\netZ2XU7gGYbnfMLKjbWlG7dtGKbY0Mp64bVXz22v7CA6uHd0skUbsqTvbJcwlLYsU7N33zk1Hamv\n287Q2OS7n3j/33/rn0EAowMMG6QtS5XMLi8QlmkMDQ3d2QB3vHf+8a/+r93iCohBLz77wr7ZuX3T\nMxgAlbJ5qdn2c0Iqnlhst3Wlv3Djmuc4DEvRLH/+/Pm3RvzSl77Uqe0snvuurmuqqtq2jRPw2Oz8\nT/P3/7b8fjKdTlA4UQgw1VLZ1LWhoaG3NsDCwsJD737/lTdfMgytUik5rrH/0EFN9vzhiF7rC0H8\nwJHx9Z11hIRHJ6eu3Vzsyn1G7t/J0UC/3SQIAADggoDj2L1ez2dDwWAQAADXszzAdlyz22vlCzvJ\n8QxOYK2WUS41SILjON12fsYGMHWjWiqPp4comnBdNxSM2zawm29aphmLxd7aALlcbvbwUa22i+P4\n8HAGRdF4LEUJ0Z+eh2g0aluGDxvbkvqbG9l6t+eh1M+iHIoPZCzbzVdab5nSfhpIVsiwAgAg/b50\n7933QJ5bLBZgGFzfWPm5j3+wXiw3Wy3bdkAIq9ZqbVEOBMOcT8AYTqqWllYLLkQhCLKxXQVQOpkZ\ngXiGBRw3EouartORxL6q7ObyuqLajnanrB9JISBkq5qoaqLrGZsbq5ViEUOgZCICgcButqT3xcnx\nMQzDbNuWZflOeI5lWXeOyWgwwZIC6CCW5hqqY+seibLxcEqxveu3Vl5/4+Jurmx09RgVGiDDV549\n88aZpcHMnKogP/jBi88+93q11uIDgXq7BYGk0rcD/uhdd92dyQz9tCz7FrSbzcNHj73nvT//zAuv\njE4mYikhlhImp9P7Do6PTCSEIC52q6dOnfq3pTXNc+fOnX7gfYrmmg4WTQy5EJEt1q8tb1xb27pZ\nKN4slq7nC5PDGZrAQ37/9N6JvbN7QAD4aQeKsbGxm5dfrVSbfcVEUIrjg67nDs/e9frrr7+NNoIg\n6vV6sVjEMCyTyUidyj333PPW2+9///snTj/4wV/4hZF0GIcMgUKi8QiMQoalQ4iXGoweODRdqlZW\nNxcGMyMoRuqG3RP75Upd7msoRgIA8NPfiuM4PB+gCdK1bAOwbNhFaIzyMTCFaq5hABZEIrxA4jgK\nQZihu416t90WTVN/55QyBCkw7NjwiNiTAQ9l6BDostub9V67vX///rfQLl++fOj0/QwHY4QzNpFi\neQTFIDqauHLlyls4Bw4ccCy9nBPrFVVVPBCiGOJn7F2e4njaZ1vgyOj0XaceeCcCy/mnZ/YfOng0\nmUhPjO9tNBorKyt9RcwXtgFHnxkeTwXCAkqyKMFgBAbBruNYurGytYXRAohyV29sLi7nOX8inBgs\n1utQv91tN1snT911ZXGho0ilShkGIdh2TUtS1LaqdRxX8QDNMEVJbnS6lbWV5Vql5FgmT9NBv88v\nYDSJYwjYarWq1WqpVGo2m6qqOo5jWZamaZYOim2j11Y9G+XoIEcHQRfvi2ah3lpeKwAgenD6EO0S\n3c0q0XPV7UYkMplKzt5Y2CpXeunBTDgaGp3IJAejvWa3XW90Gy3PtOPh8Py+mXdOzR/9wX8/fvLU\nMy++Ihs2JyQVDdotdat1pdOzd0vdawvrr7/yzPve97638L/4xS+OTs0+8K6Pr21Vgv6059L1tl6X\nLA1hLC44cvTez/7+XwAQ+clf/W8YAsQTUcPQABB4i9EHACCfz0fTe3uy3ZPtvgaoBjR/34chlPzy\nl7/8NtowlFxd2Xjl5dduLS7Lkppfu/a+973vLT+w733ve4uLtz70ud+f3bOHRZxUkOnJXYJBrt28\nTLDoQx/5z0MT6S/+3b9cvXnWFwrjNIOSlGbZu5Vqo9NFCPIOQ/LWWJVKZc/0UQYjWJz0JYNEgAYZ\nxMLcer+1VcnW5CbIIASJqmofAACa4hGYwHEcRX9GSORwZmhibDwUDNZrHcAjHYvwHLZZ07Irqz+9\ngb/5zW/G08PTR09wPHr4yMyB+angUJrkfN/85jffwrnnnnukZrErVgjKGZmMHDs+fvLE0DtHfPrb\nTz3/zAtnfnK2VqzdurH8TgQPhhlBWF3ZLBVrP/nJawsLC9Vqtdms9/vi4qsvndx3cDAQQU0X98CY\nEIgFQgSEqJJcqtX7mmm5uKKDho1CKKfo1na+AFVK5Xq9fvjw4YUbNyzbFkUxGo2yNGPZqqL2JLmt\n6ZLrGY6r95Vup1vnGIbAUNc2XdeNhALpwZRlmdeu3lRVVVEUTdPu1CqkaZokSQRB5K7aF3XPgiLB\n+MTInszACAoRrVqvJUoOCJw4cdcHfv6DQVrI3d5AJHOQjzz6yAc5Ln79xkokmrr3/vs00yjXiran\na3KfRDC9399YWZY6zUTkZyitz597/Yc//GFXlG8tr1+5tNZqWBQed0x26ebumdcW89nuzStXZmZm\nHn303ySrN95443Of+9z9Dz76lb/55v4DJ00TVA1vdHLfr/zabz/37Nk/+aO/Kpdq33rh0t59h0Oh\n0EgmY7uOY9s/bYL48pe/PHvw1Ol3fZhkwiQbO/7Ah0fn7vrMZz7zThYolcw4NpjNGreX8jcWll58\n6l/2TE098cQTd95alvXEE0/kS/UP/fpXPvDZ/z42td8CwfT45OO/+Knf/+r3CGH4qz+s3f/YR7tS\nnSRpmmY5TkBRXBRlWVYoinFs5076zjvw1FNP3fv4J+55+AMze/dzoaCHIbKpV9rNle3Nq7duLm9t\nNMSuZRmdTsc0bJblOU4IBsIM83bHBAAAjh07lkwm65WqZQIYShsaYGhAu6UWN7NPPvkkx/2bKffS\npUtf//rX03P3s6k9HkFm9p1698f/09e//vW3rGCCIDz55JPZlSUIlXxhYHTSP7MvPDsjvHNECiPG\nB0dGBodZij9/5uI7Ee4crKZpRaPRVquVTAwcP350YmJi//79pdJugGINSanmd7uVOmA7BIiYilYr\nV/zBUFdUepISiQ5EY2lRViu1FggjSFWJf//r//ov//j3zVJn38GZQqlYLhXGRqeIPqDIBmRBsqQv\nreVMAMRIDiS4S0vLhw8PRwcCGGKbniX27V4XxSAhu1NjGPHQ4f1XF88//NgT9Uan79E/d/qhACl1\nO6Jte41GOR5Kx2PpyrUuwfEP3HPaUPr333XXDy+8uJBfGJgMvVm98cBnH9MR7jtf+5vpTLJrSvnc\nxuj48Orqyv7ZGcpqpJJBMBNPj8SGJsZu3n671woAAK+8ct0E0b5GmV5guea6To/qiqPpeFsp2bY1\nnNqTu9U+f/Ynf/M3f3P58uU7/OtXvvKVc+fOff7zn3/gsff80q/8KoqirVbr9u3bf/6nf/6d73wn\nl8vd6dlzQ5ub7UBAaDcq73//+99a17/6q78yDOPzn//8z3/qP+u6funSpQ9+9ONvvvnm+Pj4xsbG\nT9PWyOOtXdzuA0woRRCxtdXSjYtn/vqv//ry5ct3ZJJCoXDgwIFPf/rT733ve2eOvZvjuF6vN46t\n/+EXv/SVr3yl3W5//evfWNu5VVrZ/vyHf/HP//zPVVV95OR9mqb5ILLXrN9///1vUfVbv/Vbpmk+\n+eSTT/yH0z+tRwcA4COP3o0TqO14n/5vP3znBL4T3vWJ//quT/zb/+///wj2fXP51ee//K6PffB3\nf/d3f+M3fuPOw0996lPb29uf+MQnEolEqVT6vd///T/+4z9+q5/f+73fAzznS3/2Z6Vec2J8/IFD\np4pbW51S950jZgb50UFht1CemUqA0s+4InqN/EKnjOAMClKbW8tPPv4Y6DnpRFTguXPnzuXRWw+9\n/xT5BrC9tYtZ0kgsvS818Jdf+S6QAMJhPwxbgNVwdctSLAYmxvYcAv/nZz720Y/9wj987a9ub9yg\nOcZyAVE2EJjkIdA0TUXXTNsAUBgnCIwkEASpl3IjQwmOgXHU4SlGbKn13Q4MkOFRqlqpD42MlqqN\nL/6PP//L//VlhhOq9fpd+4f7/b4sK7lsfmpq5uD84V5PDAaD/+Mfvvr+J9+7dHPx0utneYLVRHk4\nOfCRD3348qXy9eVbAEfs1PJ9Qw4F/I6mHTt0cDgewkii1W6DGBKIRbK7hc/+7tff5kr+4N7BWk9m\n/WF/ICTpeqtd4TiMoTEEADnK55iw0rdczvjW915dX99897vf/ZYM9++D53mPnzjAciTH0Q++5333\nPfah+fn51dXV/x0+hmGXL1/+aRbZ87yvfuFXd3a2y+UiANoIAgGgE00kfuuvv5PbLT/yyCNvScP/\nPhmPHkTf++jnGYa5detWsVjcu3dvt9sdGhq667GfZxIjExMTP62b/5k9/PzpfbKimZb96o3t/z8i\nCu508qf/4T0QBB2457G7HvvIo48++r+LqXgLHn300aeffvqf/vbPv/zX/zcdCT10/337pvc+9Y1v\nVLLZF6/n3raIv/+JB6KR5Obm1v33PyBLys//5pfehvCH/+VjDE03K7VoNGpoSrfVKBZyH3jfE7ns\nztmzZ4/uGzpx4oTnAZVyrVSqaaoOANDS0hIUC0Ag0un0IBBNJYdAAJWkPkUx0Nz+0YWb57d3VmOx\naLfbi4RTPBvbXC93VdzFAhAmyH1XbkmAqoGyKJd3BYaydaNZbzYbXcNwEBQjWJoW6N18e3bmSKPW\n/+AHfvHZZ15qtyTT8GLRVLOu4WhgamL/4UMnx8bGHFdbuHHxqR9+Ix6geQrJbW90FbnU6zYsLz1/\nfFu2rt9ebEo9SVW6Yq9YrlarVYqiAoHA0NhoMpXiBF43jL4kB/1vtwQDAGDZmm2qJAYOpqKg3ByL\nBN778OmIgJlGmw1iCiBHhvz75vb909/9+fTeqevXrz/88MP/zrJBEPSud73rjs7njoBo2/Zz3/9m\nt1V/4YUXZmdnf2arcDj88ssv79u3723PX3/5mU59l6NgGgP8HD49MTQ9lrr2zFcSsdCNGzd+4Rd+\n4Y7W8mdCKpW648A3Oz4hyfV6I3/k6GwsLgg+nKQA0xIb2YWgX3j66afD4fC/84sAAIj6mAhPpsM/\nS3P0fwyyLMdiseLK5dL28tNPP/3Lv/zLbzN6vAUQBH3uc5/74Q9/uLK08J3vfNP2IIbxV+qdcxeu\nrWxlc9Wf4cWk6maz0ykUy4tLy9u5/DsRtoq1W5u5OxUMAADQNA3DsFgstra2trVVdz0kly+HwtGx\nidG5AxNHTk5PTMc+9dn3PXrvqeP7pyfSsfGByKGZ0eMHJiYzIR/pIDQD/ejpF8uV/OTsA9V6a3Rk\nimH6169s2hBDs34ck3qttm1oJAgRAKCpKoh7puaZlg45uK67lmG7sIvzWHWzCx+kR4b2QCD+6k/O\n0gzDMFw6M0iaXqNRy2Ur9UapVN5VNXFx8XoiGfvwRz954eJ5gef2Hzp89s2FYydP7b/3gS9/5R80\nRZZNzTSRcDwGEqCj6SiMkDixkd32PK/ZaomiaHtuLBZ759ScOHFE022K86UGB2lVDEV97zp1XOkV\nOQ4b2zOynX1FMandgr28tLKxtva5//Cbzz///M2bN3/wgx+cOXMmn8+3220QBMPh8Nzc3KlTp97/\n/vfH4/Fb1y792i9+AMXgaDRCUVSlUvrSF37lN7/4F1evXv3617/+3e9+d3FxURTFQCAwODj45JNP\nfvzjHyd+ljS5Z3IERVEQ8lzPQhCIIiHP0duljd/55L2f/sL//c1vfuMP/uAPvve97509e3Z9fb3T\n6ZimGQ6HDx069OSTT77vfe8DbP3st//srsPHi2211WolU4dxAjItBQAtud/pdSobZ7999Ph7NzY2\nvvWtb7388ssrKyuNRkNRlLcFakmtar3Z/nc22/8JgCDoOI7rui9/4y8e+IXP/u3ffvnzn//8v/zL\nv7z++ut3QiIFQRgYGDh9+vTHPvaxPXv2vPLjH/zzP/wtxwuKbp44dnL59q31enVoeDx08NA7O98t\nVqanQ+FIQlHNTqfzToTbK5sO4E08cPfKysrO1kZA4PpSb319fW5u7tFHH93dXq812q1uT5RaHE9M\n7Znc3l4PhYOBmisJfdyxYRiencjAMGzLrZ1eDQmHw6IokiSpquqdBNw+ny8SieiKZAsUDAA4ihAe\nxtIkS0CQY+iIQWEoDiMYTpoG0Ox0Va2P0ejM9Pz6WvZLf/zF//wbv37ffadX1lan9oxsbG22t1sb\nG+s+P5tIhhmal6QewwiHDh5DPPjCmQvRVMYEsMzQ8KnTpxeX185eung4Naapom0Z8/MHAGDPzspq\nJBxhKKrRr5umCaEI5xMwGAHd/5f3zh04sH+20xNdD4iH2OF77ipVdquFHAZ4D917T3p08qnv/Oj6\nm5cCseG+JNfKzV///KfHxyfvf/CRT3/i47/1X79AUhQAgAAAeK4ry9L6ytJz3//X1158zlLFer1O\nkqSmaSiKmqbTaOx+4TMfmzn+4M899NBHPvwhDCfujK5rWiG7de5H31i7ev63//4Hb6NtZHysUCgo\nWj8aDfn8vGmqDuAhOHbfybtf/+Zf3njl+2P7T3zgiXf9l//8nzCcACHwTmtd7Rc2buWvPgf1axsL\nbw4k0jQN1uv1fr+PYZgoihiGIQhimubGyrUf/eBbAxMH77nroY9/9EMExUDQz/jKURQNh8N3Eu+8\nM/zl/xA2NzdrtRpBELFY7NrL3/nKn/7+w+/7+O/85q/98R99CUFRzwNAELQsU5G62Y3l3/7VP7l8\n6SLNsB4EO3rfVVXEcTRRQoM+EkPfSQZKUb5QVAjGfIJf04x3IgxnhnTT+M53vjMxMcEx1C+878nd\nfJYgiPkD+wmCqJSKAZ5nff5CeVdUe4FIqFitlRs1DowjCOIXfCSFx6JBGIaCQabRQJFQcGAgNRYI\nhtdWNzrd1vLKTY6PR+NCI79l9iwCh2ncATAIwkCUJgNExLZ7GM4YBgihhAeiqmZKis7bfR4IhMNB\nNOjHcFCS2zBi37x1ybLtWr1iO2oqNXHw0P5wOHhriey0ZQwR3nzjOo7whe1Ku6d8/NOfS0diX/3y\nfxMwRPVsB4MNU2d9QiwSAG077Q/CIJQZHalUKgSGMQTVFyXHML/9h5/a3t7WHbDVagWDwZmZGdtz\ntzZXXRcAPRNWUVXXG41O2BeOcKH88o5a60ZJjmR50AUZmsYQdPH69ZuXrni2U6lUTt13zLIswzDu\nWDDugOu6LIcAoN3uNFdXlznOZ5mObbueqz/zvW/84Fv/NJQZTEYjrWZVbLctXet0WnPTe0EQ/M6f\n/ldVVbe2tlAUNQyDYRgEhVayeVVVPJIg/H4bxnRd1fva8YNHFMOOxUO4VXv5639EYLzAxy5fWkiO\nT2zvrAkc4jrq3SeOIhD+5uXbw4NGbDACQ0QhX4lFB3Z2dsLhMI7jmmrDFCVp1msv/Whl8RKO4+Vy\n2TCMUChkN+o4SeEk7UGI5Xh8KM6wHMMwnzx9gOd5RZUtSx9IJ9PpRCDoD4VCu9ktgiDuJP/RNO1O\n5QsMw8anZrPZ7MjIiCiKd999t6ZpCIJMTk6eOXOmVCh85yt/fGTxiK7rOI6LonjPPfd844fPrqys\nyLI8OjJ+6vCBaqO+tbVlSZ0b516dmZmG1ECnnG+Xtt51bHDfvtlkMu5aoKZpngsOpId3svluV/L7\ngj6f7wPHD0QiEcM0YRTpyRLn9x2fm7m2cJ3juJGRkUppl+f5++67LzM65PTlP/zDPwRB79Ch+XAk\nPiD3d3cLm5tVVcEBwAUgk6IQ24EsG4BglBO4aDwmyj1kbWWXZ2Mjo6M/OXPZH8JX1xbD0Q7LC4Tf\nJVAJw3DMj+mmo9kqaIIUQ/shWtM8TdUImmB4VvD7QNJh/QymQAfmZ57++j8kU+FLV15HcXhprX3v\n/fc8+b6Hu90uhhLFYrFWbdoWGo+Oh4PDt6/lBxJTN2/eDPOhOB/ILy2Rhro3EV6t1IVQoNdtrW1t\nqFoMgiCGYXI72TiX2cllOYYdGkhrqqrLimPbrmnt1tu2Ywqe37BN2zRNXdFVrVbCdvPq5OQwAGCj\nw1O24j7/7WeAnvfuJx749uJ1UzcYiqVpFnJACicCgm9qai/DA6IoYghB0wHTNEVRpGk6kUiISsP1\nnHKp1u12DcOmKR4EEKWvw5DVkRpqn+XYFAb7ILsP8lg8yuM8Vy6Xb29tGobR7nU5jpMkqa30Dxw8\nNgIRvV7HhOFyR9b0fj6fLRaLGJKoNnqNXkfwMZrj1Mp1qKyyvrgNc8WGbEMsTSEOTmuKtVVo4dRA\n3ywlk8lKuXvy5Mlbi5s05Vqm06hX2ME4FUpGaL9pWfV2tymbnge4fWt+al8ymQRhZHVju5jN6bbs\n1bqGabGea5qmz89zHK3rum3bNE0rinKHt3Fd17Zty7Isy4IgCIbhlZWVO54joigWCgXDMGRZLpVK\nsiyn0+lSqaRpWrvdDofDyWRS07RWrdKqlAHAjfjo2cnMQIhDTakImVEKnR1K+jDHceIUS4KQt3dm\n0rbtF15fmJycDIei+Xzp7JlzW1s5CET8/oDj9rS6Arhe0OdHITvKUxEaB6Xun/7pn547d+7pH15r\nN2oH9s3+2n/8fKVcsm27K7bK1cqbF64E/CEc9+/mG5FIHEEw29Rakr6+nrNsDSKooeF0UxLb/T7y\nykvnUNyZ2z+oKMDUTHh9qwihJZ6nhwcDjgt4MGICWEtyG92e5toujoVJqN2XOy3JB9KJNBfFk4xF\nxpP+4+P3S1LvG9/8Wk/xHn//XT9+4dzwuK/drSyJ7vDwaGYwBeZgBCZpSlD7G9ub5VB4sNGsURh3\n4uix7Orq2trq3fMHNjfWqq1GNDOg18vXFhaqpeBwLJH2B2/fvp3Xa2+ePx8Lhq153dVNyPF8LMez\nXARCW62WbhoAAAwODjA03qhWXNelfQEAJfKlylAm7Wc4ravwCJEQohMTU4rc51kOBkCpLfY0CYVQ\nEARRw+12u7ZtG4bR7/dFURwZGRkeHt6t2AiCQCDcakooSnCsoGuWKHZG9sZtSyZJiBdIDDFbsAuB\nniDwdCRaqFZrnc6dlNc4y2qO45jmbq3t8wcpn1/T+wzHJIQhhGY6iu5CWGJgeHV9odqqDQ4Odftd\nqdt/6IEnch253ukTLEZxLC0EUMxBKYELxHazSyPDU9VONT0w2pdNEOhBEFSpVJRiMZlMEgRR73Rr\ntTaOk6FQiGGYH7/82uHDh0ORaLnZbcs6w/sYlkd0kzJk27ZTqVQ4HOj22jzPoyiaz+fhn7r97mwG\nAADuZCCEYRhFURiGg8Egx3F3ZAySJNPp9NLS0vb2di6XGxwc3LdvXz6f381tD6eT/oCPREFX70+O\nDnAEcJOAYIco72wUCjvveuShI8cObm5vggjY6HXW19dj0UQ8NhCLxUZGxjg2qKoaBEFNRUFo1NXN\nZrfWKJRQx9w3OjyeSiwvL7/++utDQ5mBZLxQKHz/+98/88brfr+fFdiN7a3nnn/59D0PCHxoa7sG\nQX7bNvxBvFhuvXllod7oiZoyOzdVrZa3tjaQpdxCp1059eDs3/z173ztq/8YQwNywau01VZkh6YJ\nlvGhMO4CEIPRKEySFrqqU4F42rULfQwJj6RTOHr+zXOv/eT2p3/h9/7DL/+Sq3jDPAXWxZkkP5zJ\ntOR2aO/+Qre7cWWRIAgYVtxeg0xQNM8GJd+lK2cefOQ+yzIvX3kzGPRv725gLBpzQhGXXWm1j5w+\nBFhaiibrS+v9zSqhSvNs9A//ry+98vprPz7z/Ic+9tGtne1XX//JEx/4RTWachyLRLGNtXUY8aam\np65cuULjZCRIb6wXlpaWfAI7f2Lvez/4oGWp7Z9crdaae2eCJ+89Jg1wm+sFhqJTyRGv5Xzikz+/\nuLX8xsU3xgaTfnY0RNP3TWUKAVjTNGksY1nWHZ16r9drNhnd74MhaXp8dHIguLyQw5UmT5JYVx8V\nGF+CAlHHP5nyKKynKSgdiCYTylpzZevSwZNHzl6+Kde9U+99AqgpkZlEX9yxTTMl+He3+vVOLgji\nqNizN29EMr4Bvy0Vt6LoSIoJ/eiFpw6OpxOCF94/srT0Js/zrVZWUaqG0Tx69GgsRu/sVsxmzUTQ\nfqcriqIvFJZsZ31ts+pi3VubtLfuKn0PMAxQ0ike9KFx/6nLly5AHaNiNGBXT46xqm0SLL6+smKZ\nDgTBU1N7N7O5e++9X1P15eXVnooMD41v5fX19UIk6p+ZmPYlqi+/8mxMmF1ZK09NHxkcHLixtHZs\nIB0bSAIA8KkPvwcEYcADIQgBbKBaaoEAtX/u5FarlBgdZdKJpgH+/bdfvHL52sDA4OTknt1sBzrF\n/ONXv3nz5s35+XlFUTY3N0+dOrV2o+EFHFmWdV0nSXZq39H03v0Xltb/7A++TNIUgMAuYk4fOJq3\nKH72NICh/fLlqb0zJorf2N4yrOwDDz1eLNaL5XpQ8giCANhwr9JbLSg1eQcAgKHhe5BOp4Oi6I9+\n9KOPfvT9Y+OZZWUd8ACOdaMhvweAKAQjCEpwuI4TmmGrhhyPTvR6nXgwXKtVlq7fGBkZCrLCzEPv\n+h9f/COGIPl0JuJn6uV6OBTCQHR8eCJfKCSTSZqmc7kcDMPDw8MgCK6trZ0cnz98eD4cCRiGlkxF\nQcjlhAAIgkePDQkR7l72JOtDm9UeRWHzs/OlbP79H/24ZujVttwStdMPv7tveC++em5s5kB2cYHn\neYQgaXSAjCWb3W6jrRo2ansuSuCxWIxm6U6ns5PLkiQ+MjQ0OjbmDzEHDk4ePHSs0+kYBtyoKflC\nIUH5G62KonYjUf/E5DCFwqChGZaqu3ZP7UtqH0VRmiZhGAY1xQTcXqcbCUUS0UQwGJyeng1zPAoC\nFIYybACXRBsCYIbs9KVqq+d2RMX2nKYOoCRGC4aLdrqNUr1reihM8iiEUD7WL/gxD7NNB3QhF0Ho\nsD+cTExNTXWarYDgVxRFURQIgkKhEExBPUnWDYP3+YdHx2AY7orS6uoqT8fjwWA0Hm2226y7iRJE\ngKZD4WBAVzgMHo6mMvGEaeo75XxblCAHrlQu4UqNMmm528MRhwdHBBQ3jM74+HhfVlEUIwjC5/M1\nm01dMxqNRnJkHCfddkdqNhu6ISeSQQ9UYYgq7uZRFAUB27aMZDxGU5TY7bmucydKAcMxkqRJggVB\nWNcMw7ASyTjP87btNputS5curK9v+v3Bdrv5yEP73jz73XvvvXcgAYMgODQ0c989k4IgjMUeB0Hw\nzm1TLpd31m/7WaLfbcwfnuuriuD3R+OxRjG/sraqG4Y/FHTltWqxPJAenRofeebHP7l98+rI6B6O\nzTSrOxSFh8OBZpMzTa1WK5um6boWAsMwCAJra2uKIr/78Yd3NldiMb+mSXtTQ5Lc78p9U1dRksZ4\nArNsRTcIANZ6UmJk2BClnZV1AgDTgwOnjhz/78/84dyeqeLWFgEgJB968F0P5msFDwMhwAJcF/Q8\nAsNgGIYAwDQMQ9Ma7cqemTHdUHmaPHBo1rL0wcyAZVmdFg9g7qWbnVozHw3zstKqdWr7j89zkYF2\nId8zgHBm3PG8lZ2tpubcNTb90EAoMzqWK1UMEO0a1spGoXQ7u5XPTw6n87sFsdsxDMFQ5XavWyyX\nQqFQV+oWy2VvwbRdV1GUUqkGASSBw/nSqux22kqPDXLRpB+0rE5FbLbrAEXbiurgBMWyVDAEAAAg\n9x2cuPiTN+b3H2g1WqBhMjiGE6Sl6wTNX1/bbnU7iq5ZECCbmqSrrE8wQVwpyoFYBGPDMOXrlRvl\nVt8GSRBCEEntdiWlIzWa3UA44guE+66jERCPII7j1Ot1DEI8z8tkMgxNh0Khlez6Tq5Qq9Wa7S7N\n8gRBrK+vL9zcGhtiYJj1+wDAsGHDDLDEnkgQTYS3nTbigXsGAgdmp1VVR5V+tmJQIAsMcGNRJhGP\nrK81AEt3lU6lJa+tLAfGpivlmt8fEEX5Tg2UeCwBABDKAghs6lq716n1OtB2wM/7CASgOT/N8Yxh\naLZhDGfSPEPrqgJBgKppngfijoMTFE4SMIRatmMqKgS5oOeGg35LN2SxRxP4yNAAjqGT+0Yun/kJ\ng2hKO3/06NGpqcHd3V1N6ySjAgAALAmgKMqSgCiKhtIaToerqlUq9ScmEsOZoddfLQBiYyQWTyfC\nnJ8vFsvpeGR8YvT73/rOyq2rgGOKsrq8cm14eNhxnGCI4ziOZVme5zOZDILjaKfdHRmOnT9/4TO/\n9OFwhCcJsJ2tCNgkgEOKpPeVPugBDIGzPI3TWKdQxz1I7YqZeLJbr+xu7RyfP2grWiQYEDi2BkKd\nZmd6eopCGMjDQQ8azQxUKhXTNFOxBI7jd/jssaGRSqU0tmf09nIBw5BQ2A+CTCozUK4U/QBJMmju\nu0sAbB/dP22o9s21pU//4mf+7G++t729/Wu/8evBxPD//F9/2VeVwbGZ1WyFW1+AHefy9ZuL2wUy\nEOvZoGS4igE7ELC6vtZtt0aGM4PJ+EA6rZl6uVHTTEXVzUql5XorkiR5Ljg0NBKOBbeq60pVtlAv\nyPoB1NV13XBMUZVkD1AdB8BxmKJMEFQURTZNF0WTkdTcnlmOpTVZCvACG6dd00gl4svVntrp7bY6\npuugFMEKoVg8Ho4mXvrJq5OcX9ZchPBBONtTHEdzevV21HYrtWpPUVo9ee/BeS4S1VGwoUpRAGg0\nGhcv3p6f0x3HGRsb63Y62Wy23miKktxXVMO0wpEogiChcGRsfCDb0+q7u1mxbahtu9+NDPnDAwGK\nRLtVEIUxkDZr0q6uuRiLJxJximHO5/KmoRkg6pL+kaFUfOJArVoM2+ihIwevXrlu204uV6ApfnFx\nkcDJra2dR544YZl90NMpAjV0V+pKkOfBLnb63lMoCufyWVnuJhMxisRUrY+heNMyDN2CVNUBIQgj\nMYyQVKUrSzag9UkilUqjqWQqHgn7g4loZH1tU6n1Hr3/QRrmrpwtHp499uqP3+h2u+l0utMpRaNR\nx7Y5xjc4EBNFKhzkBY6cGhlduX17JJ2hENRRe3EfMzkQ90yNo4WAT29UKwF/aG52T2pgSLMcx5T3\nTk+m02kURSuVSrPZ7CsiikGtdh3piU0PsGiaze4UX3rxtVOn7jlz5gUMB1Z3ygRJQjiPuZADgwAA\neo7nWI6qmtFoeG199fDhgzzPVyqlYDC4trbW6/fqzUZmdKRdrRA0+4Onnyf97MjUBEvRkAdYuuFa\nNoThCAghKMYzrEJzJMtpplMoVzqSyHKUC4Hnz5+fmTxhlVSOIPbsHVN7/btPP3CNWN2s1BZuLPqD\ngZ7U31hcPH/heijmxxjm/KXLHm4G4qmFW8vnFmuxTHdgfC8jCF695QKeZpkkx6AYxnBsbCBZKe6C\nMDR/9ODo5ATH8QiCZbNZTVN8oTDBkuN7RgzP83AkFA2ruqHIfReATRtcX9sCAIDneYcBxF6/2+0a\nus1z/ntPnN63d1+v28k2Wn1Z8wksRtEYw80ePICzNERimq6TDI2ThOt41dxuIV9EGSa0uCzLfQjE\nWs2O0ulsLC0dHxkmGDrMsT3DbDSbSHa7VKuHjMjB+f0+nw+GAc/zarUa4oEbGxuiKHosrRg2wfC5\nYqXX13K5HARBgUh8A7FLcrfc6gC2zJFwn0Gypqg0Ox2tFU+k64ixvbtqW6AvGOLiAUMz25tYNl8s\nSm5iIDESHN3sAdeWq4Zpx0ulRqNhWbZlWRzHyfL6xvrmxsbuu959yNBsHIUGB+KWCTIUDgE2joLx\ncNCyjbCft3U57BdAzwUdW+pIJEM7nmqalqJpsqoQjmc6tgsCBAqZuip1OxCE+DhWx0xZ7Kwu3zI7\nzm/8xm/AMBz2h69fLr5x5uIvfeqjhuJ1xHxqMK1JRlcSSYr0Y6jp2KVqhafwTqe5YWiaKPcV8a67\njs/P7Vu5tbRZKc5MH7h2Y+Hy9RuReCqciL1x5pwLgPsm97EsC8NwG+t1O5JhGK4DqoqBGFZ/cmwC\nhrCAL/r1f/7R1/7hr27dvBUJx8+fKyRT8aBPACgchTwYxjRFaTW7tH+ACfpasri1m0doMjKQ1AGn\n3GrQQWGnVpweGuMjkejg0FI+b9vedqkaCEABXgAdt5QvMAyTSCRAEKzsFmGMlSRb8MU2twqdrjQ3\nNyNJdr5Qmxiyb9+6/djDj4b8vi//3VdP3f3uxNDkr/3X333P/e85ffr0di77+isvT4ylBb+vUtyF\nAO/Iw48EMpORhrwHJhh/mPGxNoQoaq/aBGiKTCcTtmWU6zXItVRDxygyHhYAEO7LVr1W29rKUTQe\nDAd1UxmfmBR1zQAAx0OyhYrVNwkA9SyxW2vhOC6QLAlhAADgAEJyfr/fjxqo0de7rU6nLfX7fb9f\nYGhKUjU6FIyEfRg6CqMITdOGYRSLxXK5jAJeq1y8eeUSTGGuobaqFbsv9xpdadgcHx+PJ5I2dm23\nUu0tr9QbLcBySqVSKBQaH0+lUqlWq4WBsGmawWDQZflOVw6FQo1mF0HJ829ezmQyIAhyFAF7KATC\njul6rpWvNeu93tbWxgTvEWGQBuGS3gcAiGIiKAaIspSORzuNmq4psthtddr54u6zz/8YJ4kbL9cc\nG4hG+X37DqTTaVlWbMuhKIZEaMUSCZhIx5MwjDquYTua66G72a1+v08zJE2gJIrI/S7oWIWdnbHD\nsxCKGbqJYQSIwAACIQRGOjQFQZapF/PbPBdIREOm4QgMnU5G7YDvzJvXbNseGpuu1uupwcyTP//R\nz372s0Mzgo0SdanqeV48TtoOoPTkuqRcef4VXdcJFNMU1ScIew8dGp+eFh37h3935eDJBy2EKezu\nBm2opZhvLqzt2TNy/doyAACCIKiqKomm3x+IRTOO4yA+PxZPhCnMpytutSyfP3Nrfu6+UmVHE/QW\nSEmiYat9gSbjGIu4HqAjZIwTdTU9PpKrlGZmp04dPL1ZyBmgG8zElU2jafRHU5lCu8El4hYMVEQ5\nFAAdxwVcDwYhCAB1VdN1vd1sGZ6FYrl0etC0FvL54sm7ojzPhcKDGEEDHjI1MnP14oXpsQNvvHZZ\ngUgbZPbvnbBVKbuxItD4gC9i2BY7NHB4fk7GuW+9emZ9e2tsYpLz+1RL8wuh8bGk3G+jKGK5Tqlc\nMvxCZjBJ9EgAAkVV3ink11d3d7arugPEQrgvzHYVMBP264bTt9221O12ZR8lwARTaoo0gLma48oG\npDkoihIODLog6SKpVKZWqxEYOZwZ7qsSxdAUS/Uk0cMclkIi/iTLshzDAADQyyQ7nY5e9WqdRr9V\nDyTCCApCppYICvieodjEMBYU+p6lWAZHMwLnJzzEh1OtVguCIIIgeJ5HECQRjY+NjUWjUY1idNue\nm5uDIGh+fv5r//qvnN/f6XSSikrTHB8QWu32diEnZzs2Q4I9iCX9VgvUAABxCQ9wpFYHgBBUM1ip\nNhd0DMdzvWYSEvEoJe2Jh8LhpRvtWDSB48TQ0FCn02m327lcLpMZjgTSUjvv2R2GpmmaNG3JtAwU\nI2Spl8/np6YmIcDrS2K/LwWCPqXfk5S+54IIjqE47kGg6dimbTuAh6EgiuCyKGEBeM/kRLst8iyz\nf262oVjPPfdcp9M5ePBgwh+MRvcWupsb1a3xEw83+9Z6oUZRFETrlUoFx3GfLxALgBRDa6bRaDUB\nDDu3tHT29tJ2NntjtUo989puucT6uIZssogdHkykJ/eou2K73UYg27YhU4csA+519FKphLAcKcvi\n0NSep777vJ9PffEP/uL73/+Xq1dvRCemVVnaye50y6XBUCDIBnic9zG6BXqtdmPv/rmtwo4QDt7z\nwP1/+md/4vPxlXYznIqG+aAvGv7Hf/xaOJmMDQ7GBgeTicSNGzdEURwaGiIIYnt7u9vt+ny+7E7b\n9ZCpPbOq6q5v5CXJRFDHcVBdt8P+SLPWef7Zl/7uez/8j//hv1Q192++8rVbz/zrd5/6figSPnH3\nqbPnz4lK/yMf+yjHcQgdeu7ClY1Sd9/JIIKjjZ08y5PJRLDdhft9ud5sVCqVgVR8bm4OhSEYRUkE\nY1k2HI5CIK3rejTms217dXVr3+BIV1Ek226JiqZaiZBPYIJq1yAgW5TFjtPkcJqiqF67bRiG0pEC\ndDSXy+E46gsKuql7nmdaVqVaq9VEnud5lhMxnMRxlmY4muFj4buPHVxcW8nXigGWBAAXA73J4SFs\nKBM5un9nc2theSmbzx07cOTek6d3dwqWYTLhcKfTkWXZtm2WZYeHh3e2tzEMWy8UVlZWYrGYLMun\nTp1qNnuNRmNtbf3J0ckUH4jH09s2IqoFyIPGB0f2p2boXtvquYalECRi2WavUUZxPCLwp0+OszzX\nlfs3by9naMUfZowk6QtinjU9lBlpNJosy+ZyuVqtJsvy4OBgOJDcRVuu3QFcD0VAAPRQDKZomMfC\n2ewOgkK2bXe6LcvWxwJDDMNUKhUCp1iWQxDMMAzH0Q3dNE077RMoijI0PeATGEZo1luVcsnzgO3q\nIhdzQQaGOTmZTktS5X/+3e8dvDsZTKQ1Xa92JD+AoG3x0o0lnudPnDhRKdWTAykIxWjOb4He1dXV\nSqMOwND9jzy2W9qVDW88PZot5pS2KOvOwsrGEBoVezqKMBTF8Fw4FIz5BH+10kHWi24wlYKEUGxi\nUJPq8/cf+5///Lsf/ODjvX98rdPpyM3yWDoGw3CjmmWHhztaT+hyQMv8iz/69h//3mdisfBX/+h/\n9QrVk4/O6yW5tdOJjEcwTJibP8XxvmKl8omPPPapT/8Sy/CZzHDzdqVRb5Mk7felsxWlIRbSY+HF\n1auPPPHQGxfO4AxFcQLnD7cqy0PjY9996elf/5M/+daPnt1z9MQ+kvuVT33S4oUHfv6XytmdL//r\nj07sn/3Ye+921H514/Zruxs+P0Uz4ML1xcHBIV3Bi/k+QRAxShqbGDP79hMHj15eWFm4UmhpRCiV\nqt881yoUQgSRGqAtHdk7MZKMJ7Y2UzdXdwiKshzHUE2W4y0A2BEbNaNjywBO4MMJPzZAkCwcClOm\njlIkfbtwpqU2EZPQwaCmWpCKEzjomgwMGP2WBVs2ERQAlBRFR1VVmqaFEJLucywdKxQKoiiePn16\naCC1tra2/cKz+/fvb7FE2U8CDHB+42qpXA2FIuEqxfO+Tq9/ZXEBZZFSpxBJB3//9/9wxHdPEIi9\n/tQrDz18H2WAGT66enXro+/75Zvd0nfO3zx4ENuzZ04q9hqNhqeBliRNx6Bjc/O55dvFtbXDR/ax\nMb5jyQOTGV9g2PM8wbYFi7YYZqfZ/9jnvnDr1q0us4142KGDJ1zDGRpIkzQA01JsHC5K+SurZwWW\ni2bCua2te0/dffXyFUfz9pweu/T3f2vi0EMPPfDiS88dOXIo12jGx0baDdqsyzdeXQyQ+F2njlm4\nU+o1QgOxSlsKeDhKh3oqYHrexWsbk5PT21s7Tp8dIvZsFW6GTHrnysrpRx87++btj336o2vXLlq6\nMT0S0vpKY/NGknIDDAg28jN7OalfNzQvHUnjpCBXu3ZZ8wVDQ4LOWuBowE/YtWHOKdfLQzyWTHA3\nb2+GE0GKhXutysSeQQyGbyy8kRlII6PpWK++Wy8HMQjE/UEQJPbMHCyUWw+867F/+qd/up3zhKCb\niiZqtdp2vlittxKpvZWVpSceOUyyzLef+l56MJEaGizWKpqmhEKBeCK6vr6+vLzkD0Qolm23mwfn\n98EQwvM+UZSVvtjttJr1RqvV2ndkEscpTdMDgcD8/Kxl6xubS6Yl7z9xCALhubk5WRYlsWs6yO2V\ntVg03HX1l174AU+SH/zwz584MF/OZ68v3NRkGWFoiqJYnx8hSMNxVdMkXA+DUBVibmzs5tZ2xodb\nNONLp9OttbXLF85pmtbuQ3uSw4ePH7dUfX11bXMpR+IsAFRJHA1xYYQgEZS0AdDoiSAImqbGsnSn\n3er4EF0B+rKYjg3SJI0K4Nbatt+PIiCIQIBtGZKmR0JB13Lu5EW881fTNMMwQBDcf3B/vdNqS73B\n0WFFUSrNOpYlYwPJ5oZsaV4insFwzheMNjvdTqtXKTeH48a7Hnn4sccegRFvaDgdi4UEHxsO+zQj\nNzqWFiRG0rdrnaVYGsZoxoZLnLlL9Ctm5YblNzlzF0L6AY/RLC0QnW30OgYAhAcHcSFsAnBXkrpL\nJS0GNpvNOyUZQ4mM5sAbufLrb14t9nf37tkv6Xpf1Hu9ngcBqkHEohO3lzYcGxb4sKF7HBssFRti\nT0smk7VabWpqKhaLbW9vu66rqmqv1+uJnUAg3LNkX5CmEKgtNSAaoRkMxSAMpns9yTTt3UJ5ZHhy\namoqFosqirKxVbINfebAoWJx48n3v6fUqoc5Nr+xiuM8AtsE7tC4iYCULiscy5K0X5Kbtg17DmRa\noOPahuEhGMnzIVm3HQgDMNQCUQAlSc6PYKiD4Jqm9do9gWYpAtd1DcYxyHNrtRJy98GpV39yrlEU\nYM+DQLRQrB06fvi7P/jWH/znh2fnj2zmftiWVHO3AgAA62d0B2xJvcz46Ml771nbWFvb2RqfGZdl\n0UNhiiZ4jkUQaHXttgc4CArF47FcPqtKbQAAIM+2dAtH3Ds1qjHYJRFOEY1aqTY5Pja9Z1xTOttb\ny+FwEEGQRrOFIMjG+mpfFlGM6tYq95067pHGU089BToWQYLL2Y1bi0sAho0cPmx6+sDA4Pj4VDAQ\nxXFy8eZtSeorisJG4/VeebkglqvXM+lBIRrPba6fvXAtsXc/SgfzPd2+vurZzurtdcBxDxw4EPAJ\nEAQikMdQhO2CnXan0+66piXwTCIerte2TUODHECT1NhcDIbxjlFvNhpBf8hzXc+xMRQVe53xsWHb\ndO7YjHmexzBM13XTNGEYrnVaJM9GweTY2Fgmk1lbW7t48eLy5jqKUMu31hmOJymuL+nteq/b6u+W\nympTvP++E2Mjg91eR+51KQIhMFRguZV8fv5EQogyqlZ3kMbJ+6YwlGUZ/1yPSlD9eDw+OZkYDwOm\naUYiEU3TFH/k5tXrSltKRuLr1a5imO1+vyV2F+Dlfr8vCMLo6ChUbCwtLV1aXDt79iyX8A4eOyU7\nVrbZWV/biYUjlbpNkANXL/9odHhkMD2+my/EQol6tWmbMEMF6vX6/Pw8TmC3b9+6kxkJBEGKoqJR\nxlah1HAE9byO2qIJNh5JohRSLvbL5XJmcMgwLAxDQ+HA4uKNa9euqWg8xGGU7uZ3y/FIdLdUIDxL\nruwGk3OObXuO66K2baK23tE0r93WPAACQcRyQLFne7ChGQCKsSwXaMkaBFEAAtseaCMYJdAQitgg\n5ppOu9kaG8owPgECXI4hYlF/o1lHTh09sHDpMgkDEIrImpnLlig6cOlC9sKx6488/mQsNfjP//zP\n566Xj80PTE7PNTpio9v+5Cc/kc1un798cWb/Phvwaq3myMS42++rqtps1m3bvOuukyRF+4KhbHbb\nVNuO4+GQC4IoSwCCwAq8n8HB3dxuKOTfLWavX2YgyLEMGYXdPZMj9UZTVfX1jR3PBVk+2KqWgwI5\nmUkurZ87vm9ycu9sMJo6e/5yo98NhOLZVsuR6qDn1WtNU9N5LiCLnXarXas2LN8EyYaHJsfb+d1K\nrb62fBtyjcEEBzq9uem5UmH3pR++SuKYj+UYinbEcno8lt8tFgt5tteDMKLVkVRVR3EsGvaFg0Kl\nZLqGBUM46MIYTEhdtVIqa4qOoWin1VQUJRZLaKrYbBYtU7xT4Lav9DRNu+O3LAjC/qlTLgSe/973\nXjt75v3vf//IyMjAUGZjY4PwyEK2QNBMKBxzIRhDyNGhMQwmCUgROw1d64udpih2O82GY5jD6eGl\nWwXXQxiKdAEPADF/IMpzYUP3ZLdF+3mCZxwEhEjMdkzJUB3PYX3CZj5vGQ4dTKxt5uW+4Q9EFBXv\nWp1wODI4OTm+d+/q6urlW+vBYJD0x5ID8PD4eKmmdDfq+YaIMzFJRm2L3drMv+vBd8eiA6++fCYW\nTDg2RFOCqlhtvZ1IxKq1SqfTmT8453mObdvhcBhFDQS3/f4QAgE7OzsgBvA+TrdMxwa2t3LRSMq2\nbdM0u93W4q3r3V6zCRCh8OjVmwssRpWLlag/iHtQTAgsb+26rkvAKEkQrgW7AG7bFqA4OEHZjifJ\niqTICOGaJuAAmOWAsm4SBAEBkAcCLoTCOOWBoGo5PMOJ3S5DUAyNGooUjwVJ3EXWDISkqEAo6PP5\nanXRVDTUA30E7SOB55/54ZH5fXcdO3z98oWN9SsEAtI4AjrmnrHZWCj81He+zVPM2NDw6trS8HAm\nu7mFObrjeI5rDo+kxyeGq7WGbZuNZuXAnrF+vw+CsKqYhqjb/XZHFUuliuRh6QE/Crsba7dTA/FY\ndGA0Mzo1PrW+tDmQjl28dCUeTaRi4fXbi3v3zCjd+nAkNBAKpgYS3b4i9eqwZ8KwJfYkZXfDljtr\naxsBf3BsdAoy7bjAUIB9Y+nW9PDI/plpORShUSgY9PNBYc/eiW598+CEv86bcTfl5wUKJ6RujwDq\nNB4FbFNXJJqmA4EQSZKyogEARJGYY6go6Glqn4BBDEKLuUq5VLd0eSSdiQZCOztb/V4biQcZEtxa\nX5zcM37HR7/X62WzO9VqlWXZZDJ56S//F03TiigFBR+NE+16Y2NldXV19d4T96l9CoBA1zEJgguG\nIyhGxKIRjlBdR7GMPs9SgGtpfaXX7o4Njx6c9zw3JssGTvh6PebKlTLgtvqy6aA9xwEUEuqU+tWq\nWKvV7hTcnfeL3Y4UiMSDAwOVruKodiI+MACjt9a6FMN5IAwhWKlSa7Q6BMUEAsHDMyMCzTcIQNYN\nC4Qt1/WxgtO3q9VeOByWJOnWrVuDyRQKQCAI7uzsUFG6VCpdX7gWiYRAECyVypVKJRD0tesVVZMY\ngfIwwiMxD8E11eq0O35fUumblXJNFMXCbq5QKAg++q5T7/7KUzcAwEUQJD2Q4Vh/tVbmuRCKMFeu\nnwM9j2PYRDTm43iUpAkCwDDMsizL1nt93fEMmnMtwHUBRzFV0AM1zfRMG8FQEEVM23QBz/W8ZDSJ\nIwhNkpBjgIDD0RjsMS2BQG5s7EAUb4FINps3VW0g6Hc6zcPjg41m9+IbLw8ODt538jABWt1ut7Sz\nBhjyvcdOXnj1jU65dv/99+YLOxuLa7/04Y/89m//9tTU4OzsLO/zMwJfLhe3d3LhWNxxbMcQTVVC\nYAz2XJaASBLxXJhEbJjCIiECBqOiKPI0w1N+GIbVnt1od2iOFwRhMJ0aHkwt+33HD8zt7u7Ozh58\n88KFG+cv0D7fSDiEOpaniz6Bdhzf6GgmE2Kj0fjw0LgoSkpfKxahgpjF9PZgMEMEhwdTA81O1wDc\nltj52JMPapoWJIIHRh7EMaxSKLabaCAQuN2oYAiUSsTTmaHEQAaA0Fqj2eq0SQizLW10ZMgx+ogH\n8b5gKV+Rumo8zu2dnCIITFNECHBYmojNTl27dgUAXQxHaJqGEVCU/LZjchwXiYZ8QnR9fd0U+5gD\nvPz0c3fMnP/tC7/99X/+WjQeQ3BC7kuqp3dgB4QRU9W5AF2v5FzX8wkhiGU0Sclv54LB4NEjD2dz\n692eODwy4DlCuaiqityXTX8a8vn8LsT0dcgGKBugXAfiCf/24qYmG8KoLxILh+o1wDYZGvBTZCMS\nAj1na2MtFgmBnrNncvxOVggfyt+4eFMGiWxuW5JblV1vKp6UGnnDBHRD3tna6ivdUjkXEvye4zaa\ntSNzd2Wz2/V6/eGHH6zVapVKRVEUXdeb5bIDgPWOCKKai9GmhxbyjWa1yfoxAmcgCGUYxjTN3d0s\nRZMoBvEk2KkUpkYziRCfSGa+/dSzAMosrVeEAKdpmg3auq0ZFgYCgGc7kAFCIO5BMABDpq4DRt9w\nNQBzUMJjIardbpuew/E8ALp9WbIch2JojuZQEIBdoN1ukJhnmX2pV3dsBan23fTkPldxCrslCnTv\nPjBVWlmcjvutwQGpvltx1GPHjlGg+corryBWf2Z0wJaU62cvBEiGgdBepe7KAGI6kO4JPv7I0cO7\nxVJXbi4u3RZ8QUHg2t3OzuY1RVFYxseyPE1g4ZAAQ6ipiTW7p6gVv5+JhDMDqWHIw2qlTm7r8kbh\nVnG3PDI07ON4FHQnRofiEZ/cqb/y4zfqzRpBEFOzgwN3pS5duXRl4Qqu6gzlzabDVjwgCH6eo0qG\npHkQJKAf+rmDVl8fC1OABUX9zNbWhmjZzVabig218wWQJT0UrdSbMkhTMU513HJxLRSKRBPJQMCP\nobAHAAgEWobBMriqascOz60u3zQUPREa3F5ZigTiUk+CU9DG+jrDEBxLS2L72NH9ktTYyG6zLBsK\nhViWjUbDOI6CIAhBAKiaDIg+cOLu8fHxXC53+/ZtHiHESmNzM3f0+BzLCxcvX23V+9Xarg2AkUik\n1eyJosyyvNLvuQ6EInC91lJk9a5HH75263y+tO2P0QDmckGGYEAH7MG9KgzastyBYZjA8QjiIQiY\noDG548R9EQrDlb5oW31dbbTKa6jPP5KOgyBYKpVCAj08EJsYHrBtu9FoUCb2xvnzqX37m7WqocmF\nVu2+6TTQL4ejgNRv7ha35g9OMyzqeCoAePFk4A7TTxDEyZMn/+RPvwSCHs/ztm07BkhwTLMrq44X\njSRcAC8WKr16b7sgxuNJnvNZtobjKIxA8Xg0n99OCqjel2CXObj/wHa2uLpZEmJDOgBPTY+2Wi1F\n7qM44CKWZ9qGqQOOa+pwIBwQ/Kwj2YapGLbMcGwsGRBMRGpUdVUh/Zzn2uV2w7QslkiKfZtnSbWv\nNOuNkaEIAnmy2IJhB0mMTI6kRirbORhGKcSdHBqoF1ZjPJmanm02mxAEsThIIS5HQCMD0UgkcvXc\nBUfRo8nY6o1bPpKJ+fClqwv7pyYnJ8dHZ2c3t7br9Wqz2Tx516nBoZFao05yNOi5OAZBoOPYRl/u\nmoZdLhUsn5XLacNDU5n0SDKeym5XdjZLG+vbFt4sF0v33f1fxHarUauyNNGoVBSp225JqUhakrvL\nCzcdVfLh0N379k5NTVw691KEw8vlamW70SEoFCGO75/nQncXGqu1Yj0ZDteqXU9XW806HY6NTky+\ncGU14PNn0ul6ubpSzcaCUQsAX375ZVjvxeNxmiIUWW51urYH9SS5Wa+hjtPtNEOhgGWY9Xo9ERqs\nlavJaObSxQVTN968cOb4iUOOa3R7jcff/WAo6HNhDMOwYDAYjUZhGG42m81mU9f1menpAM1hGCbW\nW2K9NTM2GYlEStkChgPHju5jOGFje13qd3VDI0h6fDStibVgQPD7QpKkghCUjCdAFzYMi+Ycw242\nWtvVOi7KIzCq4BBqOq0B2iE9RREVBEGSySTBcxiGJRM+MZQwLMfE3U6zIYnNvljrgAbjypVdMxKJ\nqL221KoXdzbvVMCu1+vJIyfkthziAxxFoKDTaeuZlD/AQOnBgONqptW/+55jmtzvNJqgB4yPj1Wa\nzX6/D0FQOBpdWLgxNjYciYQ1TaNwhhFCpd18r6+nB3nURnuiqSuuZKpzc3O2rVer1UjUn0qlHn/8\nseWVJc/YtA26XMievvvUf/vSn9FCWDLAkakZDdhyHNN2DAdEMQzGaQJwaQgAby1uhuIhgeUMV+u3\nRctWKdofSfjZjosCDmDpJAQ4gGfIomlbqBetlZvU8ICiympf4pgMQ5Oe5wgsgwyE+t3GtVuL1+mg\nZzvWzcbKngMxy5GVfn7PnpGFm7du3Hrznkcevba6APG4Q0EF5eWDD09TNMHyQUV39j+yLxyJ77pd\nnYS/8Z3vVnc75Yq5Z/gIYTHdfDWEoiUlBKMBDYQcjCJJUrU9x9GSsQmQsgicHg5PcEjopedef+bZ\nVwEQP3jo6GZx3e9jVjevoyg+vXffyspqQZE6ADiVDkbi0UBwr+HastJHSDo2OI5xfHDq0JViE4Ip\nJp5QEITm/asOZBUblUJ7eHgiazhEenSzVD3wwIMjwxP/66//5uylVx544EESgVzLBlz3+sI1ra9h\nGDaQnDAtUFWdKwtXIYRY3dgaGZ/Acbx2e/303ffsnLuNNe3DsXFWVU9mInJugY05++8axvxaOBye\nnJy8du3aj1/9SSwW48KjqqouLJfQjc6eqWmWHfVHBhmGkeUcM5ps9WTD9szBwZ8sr4P13omTd400\nVv/yq/9y+vTpA4eO0Jywtrbmuk4yFswcPVwulzEMy+fznU5HVFXVbqQGUxee/6cPPXwUVSrt3fLl\nV8/dd+LEt7/7fVNtBcYSsUQqEovtZHdZn//w0ROtbq9YLDY624fumt0oF3LVUqfZwwBmYnBOgPE+\n2+2o6tTMvunpfS8+82K30Toyf5DQwD7Wfu+TD9y8to5vm/PT+7d7i7VybWZ66PT9D928vc2Hxv/+\n66/cfffdf/m3Lz308MxdTzz+z3/w7XKlODdzYHuj06wBB2diqEPfuLjUlR2CIILB4HsfemxxcfF2\nNttqtY4fP/76wtKltdvlSn5iMvOxDz72/As/vLl7s201grx7Y3VjW5KeX7v2jTdf/oWf/9jKwuri\n5ReiGcaUZQoAQwQRxHEEACHPw1B0MyAs72zCMOz3+31CBPAwTbIXL6/oYBsLs33dqkmwrequjoxn\nYqSrjuzh652NvXtm9j7w6NKt64uvLqUCftC2kExq5l/+6RuvvHiOxrm9k0MUhVUqNZy0B0LJpVsb\nmu5dufZmT3E+9MGPf/d7T6mqGxCGczstTS9PTO21AbBcbiMoMTCQVBUtv5PtNGSBDfMCW62VJbEh\nK51IOLBTLLRVmXP9rmtroqy0uq5uGoB+3889ODI62hbVYIj/wEceByHUspz5E++FIAjHifW17czg\n6N49M4VC8bvf/f5QMs5X8yNjo6FweLdeXl5fIyhycnLSaNV5nlcNE8GtwYGhRqt9/s2XZEVNp+KG\nm293JRBEt3fylulFYksvvfIa6eO6kpHNVmxdq1dqhqRgMIjjGAyjKIoSBHn48FFFszTTFkXRNOxU\nIvLMtcsjw0PxsaG2rqEhfzqd2NxYi/VCo5mjY0PHCIKoVCpSBwsGg6ATkhV5d3d3fW0DBFFJ7EMQ\nWqs2DMPoywWW9xEUjZFMV9a2NjcJmqkOD//iJz/zwgsvXLxwzXEcv9+fHhjZ2tr6yStnCOJSIpFo\nNpsvvHDx8OHxX/qlX2q1WpVKpV5tAwBw7NixWquLk4ymaQcPHuR5AejmeoplNnpzR44DMP7mtZui\n3EcxYqtUMAh4p5BrSb1ILDoQiAS4wI2LV+ABX6vesDXjPY8+FgwGHd00bGtq756d4m48Oj497zcc\nfGVlZavcOu44vkh41IK3NvMk4W+1Ws8++ywIAsePH+92u2sbNyRJ/pXPf/La9SvxeBCGsXyuktup\nWCAUDod7vV4ul5MkKRgMappWLBa3Nzf2Tu9JJmKNev3sG2d28wWxRxummqQDwXAcFkJnz56XJO+V\nl15mMA5HsWa9gYAQjGKaqho4yfsDDEXjCJpWLImiDMOAXNfzPAZFHcdRu12AdhASwhAIAmwUBYNB\nfzQahSGr2m6bFtBuSYZjFwtVyNRMgvMMC3ntuYWVa3ldBPxxutcRK6UKyznj4wMb3ZIo9UuVarUu\ngjc33vPLvxEIXL1+8wYBsraByr12uSh6iIeTmGFo7U6z0++XyxUC4WKxmOe4CwsLitJKpiK6h1MU\nCdE4RGCi2Os1WhSIJBLx2Mhgvdm6fPXy0PjYyGSi0qipuhkThIA/rKqqomgUxTA0n0qlHQccHhot\nK+277r0nkUq+9MrLV28scD4BMfWLz/zo4anpWHLQcOVKtak7SLFcLhQrieTA4kYBBHdlSaEortlo\nm7opKTaG030LWduq1Ks92DIhS+NwmKZpCnZlWcExQpL6R0/epWhmNJHKFYoMw/3w3Bu5fFahqYql\nrd5eOnRw/8hg+pvnzyM1QJHQVCpFkuSVK1c2NjbGxsZAcM2mZAzDGIbRdfv69eudjshzvsHBwaGx\nSRiGHQ+gWIH1AZ2uWGu2NldvP9PIRaOJ0eHpS5cuKbJz4sRRivCvrKxUKrmHH34Xz/O27YyPj+M4\nUSjs3qnCZFnW+Ph4vnRG0UyK5ebm5trtztmLOYwgKzdXFY/q68Yzzz7vC4YM0+x0Ww/HgiTPOmKn\nVK0gLuCjWY/CNKnfl+RmtcazHM0wgt9nmOb0vrmnz3zrABaEPG5oeuzpn/xYBoCeadQkuZDL5bPZ\nZHQ4IPhyufz8vsyBffu+9/1vBiNELMkeP7n/l3/x0zAMAx5G4GgyMZotbyeTSY7j7oRTBoPBQCBA\nUdRgKs5ReDwRvrVUKeUL8XC002nqhq6T4MSe2eTY2JXF2w8+eHJ9aVNgGAexAMITOB50PbHXq9Zr\ngOsZrGFZltLpOKZpKIrruoIgxBIJz/P6/T4X53xCiIJqgA3bhknAHM9zfaXnuCiOCrJoNlqdbrOf\n8PEc4QchC1m9mk0EMpEjEdPu2naHDAQCQRxBmasXlgeHMptb5ZP33MMLwUsvvDY8NvOT1y85sj0z\nN+33KR2pYUNWenAIRfELFy6E4oM8F0jFhliW31xd2d7Z4nkkEBzdXFjdf+RQYiSzUywsLi7iBDw3\ntXduaq+FUd/+3rdzheJxsbV3bkqzRN1WHQTa2akCHhQKRebm9tVqjcuXr5uGs3fvNJzLpQJJz4R2\nt4qVXDXAhXCAVDpqrd4Jx+TM8IgLl9+8cLXXV0bHJyYm91z/0XO6qjmOF3AwjGAx1CUI6tD84ZLc\n12Sp1eqEGHJsMDOajHAY6hgqHospitbtSbblrSyvNTviTr4wNTVV2a4kQnESotZubW5vlYYHhnCE\nKOx294XDZ8+/FIvFotFoo1XdOzO8Z8/E2tqaZlmO40Qjgs9HKX3NMOxEIpFKpQgOarfbstyPJfm5\n/fPz8/Obm1seCNw8cw7HmPGxvRPj0/l8/trVxWq1imHU/IFDtWrjzfMXF28uAR5UKlba7fav/uqv\nfvMb37gTpX7r1i2cZPyhMEVRL730sgbgJ07e+5NX37i+sinJGsz49h+/+7XXz4A0YXiO4ziQB/Ta\nnZVWl0Jxj8K0bjvAC3VVR1G02+3COGYBLskxLUnNlku9jnFw/gQuYAJuEDy3vJm9dP6CoWj9nuSa\n9shg5qH7HyAQbOHKNS7APfBzD7ielsuVMgNJXTNDgQhLm8FgMJlMBgKBO7H2tm3DMJxOpwOR8OLi\njVbFUTqirZije/ZcrtZtxb6V256YmdF3dq/fWAoGo4DrtWp1zIMHxoOxaNQwjHar1RM7EAT1VUWW\nZQoXUBR1IMi0bYGihlMpAAAqlYpje4QHIZ5p2TYAOAQJYQQOqLAHYBRNa6pSrTUc06FDDA0xGOYi\nJIh0xY5mdCgOiMTDCO72lW42W6M4vt3rzx44MDs3j1H0d7/3g+MnT01Ozyxf2AABFMNwhhY0R3Ec\nQNdsy3QEPiiwAQKldnd36/Wq388GgoSmy5Ik+f1CMOjfzG+jKDw6MjI1NUGS+GvnLwh+X9y1Nra3\nbNiend8XZ5KtTlPpG0NDQ4PpYdt2n3n6+Vdffb3fB0ZHknfvP/bcP35PN40E7WPG5iu5qoGhp6eO\nSErr1spGZmxvPJEpVV8CYIRm/Feu3cIJzrYAHINc22NxxAMdrdMeSKW6Wq/RrcjtrpCOhgKTkUjI\nUvu9rtIoVvuyWq5WXQg7c+6i2FdkRfX7QmENnI8N8zBLs+GZY4kw46dd9Au/+Ema7F26dGl4eDgY\nDHY67NGjR1OplBA06UDm+eef39nZGRoam5iYgCBU6WvXr18fPzAl9fVOVywUy4IgaJrWbVYhCEql\nUl/72tMvvPDCvffeOzQ0lM1mdV0/efIkw6GNRkNVzccee+KjH/3o8vLy1772tdu318bGxmzb1jQt\nGAxaDrC1teUPhlmWlZW+LxTBKLpaa+m2HY0PjI5NraxvhSLDoihW8ruJSDS2d65cLne7XUmSWAga\nHBzwMZxjWps720NDQxTPFqplnxBhGb5ZL4YjvumZiXa7Ho3ExZ6myv2p8YlKqZTPlh577MHx0dGt\n9Q3PdiqV2oH52TNnXx0eiQSFgNzvwhC0ubU6vGew1Wo1Go2hoaE7LhIAALiumwj7X62WdV31AKde\nLDfjcbklcxxHJf0owX//hz/ezLXDoeqeoXGx1s4kEn2xZbI8AAI4gjoMzfAcwzAeCs+MTWuaVq1W\nu90uzRAA6Kiq2u21mo1O19+q1Mo0Q9IMg+A0TpGs48dFk6RJqdmVJZlCAUvROtU6A8EIjRpNtc7Q\n7vh42gaMpZVlVbfS6cxQJnTlypXPfOwj1WbTtA3d0Z95/umPfvRjSq1bqW2pujI2OS5pwObG9igw\ncuTwSSGUcm2vlK9kt7MECuzZO+k4ve2dtdRAVFGl1bXb5cpuICgMjwzqhrJ47YoFIJxfGBjJYAQp\n6+rmZlHwBWLJlILvZAZHSJKu1RqO4x47ejKXK4iimAykNNFUQS0WTRA0VYnU2p0OBCAHDp+4sXDz\n3PnLimGWKq2BTKbZkd84ezGVGSQQ2EfTer/vpzgag5vVSpzBJVVVSJVigXAAo1lIs7Vmt1Vq1is1\nGQRBCEZr1RYCYwhsJxNhvy84zPNgu6NIveFEmA8KSyu3CAr/2Cc+vlE8NzqeuvvuY5qmLSw0elJN\n2+4228XU6AHP8+6UrgA8AIZhhmEwDKs1uwSOoxhZLpfr1XKjWtKUfiwWQwEoM0Sn02nXM/wB9sD8\n4xsbG5qm9mW02WhvbmyfPXM+ly2gKCr2ZEO3MAyrVquqZpw6dSq/W37pJ6+atvue9zzxjW/86wvP\nPr14/QYfCIIQltvZ+MkrL3TbLQjEGQRP+IInpvebitYr1UDLCQo+zLQwEB5MpmRZrlSUWMoYT8Q3\ndrYpiEpHk/22jAH22GDyfDEH24Ch2npfGYgntuTSSDpx6tgJDISfeellqWPMnZwNBRP/94t/JQgC\nioGKKkMwMzAY9Pl8xWLxTj2EO1kkKpVKvV6PB4eTkWC73U6lUr1er1vvxAPxRCLRdTmCoeW+MT0z\njEPIyeMnFs5djgfCu03Rs2wYRQOBgAB4vCCACIy5tu6aoiZLet8CHcXSKq2aLMstqZMMREHYI2A3\n5CdxGldUTVEUy3GDEQGncFHDgn4mxFEkBEjNKkYxSDKGRaNDfJDwR9hGp9vuxk0bTSRGmqWVyT2j\nIGybjgpD3t7Z8VdfP7NbzftCnlZVENdkeVS1AVEUbRuIRgZ1x/NcAIYRkiQpHMBxTFEd0wRSo4l6\nvdpWZQAGI5GQaeqlQmltbeXE4+9ZWV03HGf/gaO4Yp45d8F0WocO+fwM32y2q9VVAqeDwfDE+N6t\nre1Go2H72OGD+5uddqlewyHXN5TuU9jNpVvD+ycSycFLV69t5QqhcJTlQ7vFGsnyUqMWCgaCDNmU\nWkEKTgb9QLcaY9H5QwfqjYxheYFwgvdFRcXoe1YQQyMx1DRNgqQrjXYoFO6IOcfxVlc3AkFCMjpB\nPmgixu3c7Y7dTfmSC9sLLCoEfUgkOJbNZh2T0fpYsyY7JpPNZmVZDgSCLMuur206DjA8NDo0NPTj\nSxcYinBMgyWxTCo2OjwEem4iFqk3yh/88BMzMzOvvPJKvVkYHk04nnLl2vnN9WImk7nnntN3GJ5+\nvw9BcCgUXllZQFG02Wymh8d000kkErlcThTFk0cO3LhxI8jTqVQMxUjXMSr57WAwvHl7+dDs7Fgs\nGcGY3VITkDWe4zm/H7WsXDa7Z+9eVVE8ELAcZ3Ao88a5swGQwG1IrjXyqyujifibqu7KRq/WwlHM\nMkyB50/dlYmEw9nc+vbmFoEB733yI5Vyu1JuJqKRUFjAEYdk7PsPHXnltRsoijIM47ouBEGBQKDX\n67XbbQwa3jsxtnD95lBqIGe7EX/Y5/OVy+XrGwUAQ7qiMrE3ammq3JMVsdeGEIYkLcMEAMDHCwAK\n67YlS2JfUxV1vdlsKorCcRzi4aYqGrZBCPT+sblWt2KY7VQyYoNepbbjlgowSBECbDsmCJuRqDCR\nitvtltzvCrQPAdwehtqF/Ob1W81oKjM3N7e8Uv7Xf/keBfT/9M9+6+ybr+/ZO4dR1EAmNbtv+tz5\n12YHA5nhsOvBKAZYluHzBWiKq9damuOEApF0OkMRZLNWqNUqINSPRBkcx6vtpgU4iWT6346Bcpmi\nqGq9rKjy+ubO6sbu8OjeiYn5Wr378stX/ssvP7S+vnnt6sKBA/OtZuemejObzcWiibwh37hxI1/c\nZXiOoKnu8oJuGhRD//i5F06cuhtGMNcB7jp1jwejZ869GY8lW7trLIbwFN4yNdBQEZtWW/VevXTX\nvXtiftyBSQjnaz2jVC9X2pLlgU5LFHsyJ/hWVtcisSQMocFgyDAMLExTuG/mwGyxWd7JFh967MHj\np07++MXnZvl5U22UC0ZuSwbsYNg/BbktHE6QPNLv91VFYxhBlmUIQlut1u7u7tDwSKNeq9Z2wYg/\nHo+H/Hy5kK2Ui5G474UXn1m8de2OOen28g3DMD704ffnd3qrq6u27bIs3e12NzY2y+UySdKOIx8/\nfnzhxmKz2aRp5rHHHvvu939w9uzZz3/8/XK3LXCs7YIQCo6kk4VyRaCxkN+HOMDuxjbcVlAEGU4M\nwCyVy+/OTU68sXUhkUyapknTAARBoWjEME1BCDuqWdjaolDofe9730A0yuH0VkucmZ42dN0yLCpA\nrtxezubWBZ7fv38vz4Zff+NVhhGCweCBA/u2N5Zz2U2cmLh169aJEyfC4TBJkpubm3dyb6qqqkgi\nDIDZ7cpAMunZjp8XSJx67ZXXvOhUo1YzTK/ZaNmGmtvJhgKBseHha7cvm5ZFckw0mSBI0lAdy3U8\nELART/NMBwVIH4PzlKZpDgqQLOOYjtjrSb0u6IUBEJCknuXiFA2XCyWKwtq9ZtjHCALVl8E+YFIk\nBPU8c6va1tzg0NgDih67dr1yY3Gn2VH+63//n7Ue9dKrt1guZqn2jXNnhoLMVNw3NXOi0TIj8ZG+\n4fnCiQcfe6zdlzTH2qjkVnbXS70SyqG+SMSFhG6H6Xeii9sNShgYG9mPOkxufXe3UDUgGAkIEhjb\naYHZllWV9MWN9fPXzoCE9uFPPLqupZ6+2Fbd8dVVsNH0bezCyy385a1eVZSvLCwu39hRCiW8Us2I\n8n7NGC1XT81OLb724jCP3rNnYPPsc/LqhXuG+IemIvee2t/pFnSzo7qyLyV85D998tFPvT8+N/Lq\nBnK7lXxjkfhPv/Xcf//D5559ZvGVF8/osrjYyOYN5UdvXvO4dFPHIJ7D/OiN7QurQL/jI5sI9Jdf\nfU6XYaVoXXnq2ig8vlbr4vFoy+0RUQ8Pa6v58xinjE3HtrJlkvGRJK1rsmuKYisb9Xm/9Wsf/dRH\n5z7zySM8DUT92sc++HNrty/2pSYKOiQWPnTgXo6IUWCAh0LZm8XcjaJWMuaPH2bCoevbuavb5Rvb\nna4kjKbuQ/uD5y5cgzHmxF2nNUV95MGfAww1JtClrZV82dwzcw/FpEl2EEAi1aZL0AO311ooErZx\nPnV0zh5it72a5gctAgQRNJTaH8tMWCCEEWDQB6Gu2srtVNY3kaGhq9VK8uD+m6Wcx7KTBw4bLrG8\nWu5BwaH5Uz947Y3B6UHFaa1sXC8XS8cPHeqVt9549dmm0WlA7hsb20BwODl04s2z+XuOHUyG4jFh\nyJLYeHDGsxmCYjRL2sqvzs5PHDw+PHtsCgvDb9z6SQduPPnZx32+9uwUMxgERmN4iIau37gwc/yg\nxuAf/5XPaJDdt5R989ODA0FdrHn9Bu3Jfa3Cs+79J+cEUPXr4mMzkzMEOuHa1659D0NFhkSKhdpg\ncvzYsRMw4gyPBgXN4nVvhIthBnHp+ubttlkLZ17XQWRubr5cqoqSpqomBBIDqSRO+HUDWNvOl8uF\nYr17bXFF6jVchPAQguD829vbd1KIBaOxnqwtLCxgBNnr1Qu5rB4Od2o1EsWCvM/zHEWVPc/jYLRv\nKJzHsz4fwXCyLIuiqCjKzYuXwqHQyOEjkiTVajUYAEMMG/f5n/3+1y+++eZoFJ+dmLJt20VhDGop\nhnXxhVyUpe5/Yl8y6N9ZW62XCrGAPxyN7J0e9QAzHA5LYr9Wq3OcAHgQy/jlXt0fjfgikTEMInl+\nPZttS7Jjm1wiVqvUt7crlWqRYZiRsTGKcXu93n0PPLK1uZvf7fYNzXEc01IsDwzHUq5qry4ueZJ2\nZD6zf3KqVNx2g6HpyfTu7W29Z6swgSAO7+cN3Sm3u6WmXKp3Mdrn51heYEEIo0g0NTQu616pbs3s\nOfpr/zFw6+at119bKRctHIZc1zTQpu4iWl9pNhoCzfqDMdgFNgvVkm0fPX5ycKLzT1/7l421/APH\nT4Gw/Pff+Pa+uwYXl26NjIxohv7iyy/JSn96diZXyF+7+Mb+/fNjmdS3v//U3L55EnVZniTReC63\na9sBRVHETlXTtNhgwjGAarVarZUZhuI4hiBxQRB8Pp/PF2BoTmCDhqJurd5CIFjwMaNjg82aOJCJ\nCjz3yksvjIykeZ5fXFzsdDoTk6O6aZ159bmZqT0Ix6zs5CrZIjJhMyDebbZnZzOaqiiGjsIkioIg\nYMQC/FDqYHZ9Uelrum6WS1WCoNKDQ4AHvfrqqxCIDg2kINfLDI6U6TrieYCjb6zcikZojuM63fal\nSxdYjsYwBCdQVe1TDIZQMMNQwYCPwymSwkkSNw0juWc6lRqwSVYxTNtDAA91LVhs9dODQzhFYgRu\nA17f0Hp9uSdLstxHdrZ2O52eYXpb2ZJmecnk0NDIxLGjlAagm7t1yhfcLtbyuY3pydGuaqsu3Mpn\n47Fks9mcnJ5xgO7y6tqe6RnDMCDH4XACcD2OYUZHhuuVaqfd4lnu4F1TtuVaJiDppqG7igqrBmU6\naNIPwgCgtdsUit537NjY2JjneavXr997fKi4/OaRudEj83PValW3rbgI1rrtz7/3NxYWrq2trV5Y\nvlGv9wbTgczeMZajK/X88toNMsfAMI6jDMdhxVL19u0dyW8FAgGYpcdSMQJDbm9uKK7jeWCCYspW\ngyYxEgfVfsfHM5HIWLdXjyeHby8XVMOkTMO2bUmWqvUOCFMsguKEKzebg5FwOh7cWbk6NuADIVGu\nbhkiZCh8MBEiGVqxjM18pVRuLC4WMAxJxCJ0UzR1JRoILG3kz12+KZsu5IVnpo6fefX2yy9eH0zv\nJ1Ci0+rWxK7udWzDzBdqLCGdOjmMwPBrP3kVprGDx5S5Q/s/+LEPXDj7BmQrwQj30Y8/0AedlbX1\neDLF8sL1GzfHxsYOHTm6trFZ3l6dHkvvnZzs1kqWOshiXsxPQQFuayvreZ6iKN1ul0TheDze72my\nLK+tL+EEaJhqp9MCQPdOxnNZljnSb3P6xurW6GgMwaBkOrazs5UcCvE08fKLFz77y++3LfP6jVWO\nAg4cPCSpBgbCiAvYorI3PQxBSLvSghDy1PETDtCs1/LdtsrRPAzDhqmGI3wyNXS50QRBKB5PSJJs\nmTbLcrbtrK2V7j25PxUJIa6LIQDsmj4Ws7Vuq5bTjX1j46M3b0q3lm6Oj49EoiHXM3W9b1sWAsGm\nriEIDMGgrPZ1x1Q1xYiFFJLqI1i9IZHFhizqpuo1Sp2DB0Zc13VBAIJBGkY8API8EIUxSNMsQ3f8\nviBJUppqbGxscZzw8EOPVprd7UKFC0TaslZrS3wo2pJUUTVBEBRFked5lmU5juN5vtPp6Lou4ASL\n4/FgcHpyYnAgaVo6CHozc9NTsxNCWGjL7aXVtUtXb9xe3ZFVzx8cPDyzB3ctuVFNBoTHH7jv0fvu\nCbNUYX1lbnh8OBGJRSIEQei6bpsm5oKY4TS2N8xuWyCQ/TN7PvSRxz/5uV+ePLSvIouletEGLVpg\nHBCoNJvZYrHWasuaUev0dNdtiCLB8QhFVTs9mKAQivRM0M8Jhw/Ozu/fQ5MQTcKjmeHRwfFCvrKx\nsWU7pj/AhsICTqD1elPpmzxKP3D3vZlEqt2oVsoFliFGxgdzu1u22tHltqlJCASgGGG6YEfWyq0+\n548BCKs7mA3gNoCLmlNuSIVKu9ooPvXMt68vXV3bvJ0tbd33wN175yZDUZ8vnpZtUAcxSggDJAfg\njOrAq7mSZSM/evbF18+dn5qZfOix+xxQurX+pqQXYYQoVxqNZpdhfQhKQjBuWt6x46cyqWCrmkc9\n4+C+kXJ+k8FdgUZRUPf5fHcSnlIU5ff7SZK846FgWnIyFe4r3Up1F0EgGIYtyxFFCXK8kM/fadk4\njopS2/TU7d1NkkdNVXYd4PD8/qWlJU0DRib2ROKprqRMTExgILxyYxHWrMNTsxHe71k2CIK6pSKo\ni6K6bjSVftXSWkqvWd8toAiOIvjI8BgEIbKsVCo1y3Qyg5HhgYxrOnpfkTrtfq9tKKKhirEwz3HM\n4GCSF2gQBHiBZVkagj1e4FDIwxGg32tbtmaaaltsOpBtgeZuT1yv1HZqzWy5tpUrqorFUj4coRXD\nqDab27lcLptvNlu2aQc438jgEBQMCq12TZS6IOQGQ/5Go1atlnti+8yZM6sbu6IodrtdCIJIkux0\nOpZlRaPRTqeTTCZ7vZ4oiuFweHFxsVQqcTiqdFqWKnu2vrO9fvv2TQjx9h2YWV68ubuzo8sygYAk\nihAIGPLxo5kBpd/iOezI4dl77j5CkeCtxcu1am5qMlPeUjSRzOfUNy9u37pdbzZAs88QbnTx9mIq\nnfzoL37iyQ98gI9E1/LFm+s7m5WGajpDY5Mn7zk9ODLc7La2C9sOZI/tHcFQ0jDsVrPXqLf6suY6\ngOeBtgVYugW4tsCRoyPx6b1Do8MDsUgoIAR6tabYqAcYPBYgo34ixJGgaTAILoldmqJIkuxIsqTo\nFB9AWX+10/cJYZYJUqQPRSjTAGVJN3QQRejJyb0kSVmWg+M0jlOKYliWE/CHx2ZCPSUvarlgEmb9\nlhAF6uJmXVwPhqKG6TgeNDA0MpAe0iynKys0w7dFudvrX7xy/ZkfPw9h6Gf/4+cefc8ju5VsoVyp\nNlvXF281u71IIimp2rMvvBhJJGdnp3eym1evXnr88ccKuw0A8HAC7vU6oVBIURRJkniev5OqWtO0\neDw+PjF49Nh+BHUNQ41GI4IgkCRJ06yjSyE/HY0A0XCg3qpX6rVSraq7TqtaPLY/lohFrly6MDwa\nmT90pCUqzV6/KXVHxsdogtxYWtlZ22BIivf5zlx8s9Jp0wEhPhSnAxgroAPpGM9yjWo9nR4ulWrt\nttjtyChCqoqJIMT8/BEAZnK7NQfAMiMTk9MzvnBQs/VIMmpaak/sOI4ZjQVDIZ9pabquchwV5Fg/\nxxq6CnquB7qqobI+lvFzAAC02+1+v++6rmEYKIomEolkMtmS+o2O2O7Koqz1e6rYllVRAwwAsZz+\ndnalK7UkxZo7cETqdwFIu3HzEmjrmRhNwB4Je6lowFblRimfGkjysTAMwziOZ7PZaqPD8kK73dYN\n65Gj99ZqNYaiTFXJFQo0Qx49cXR0YvTVl79D0+zs+JhPCPe6SqXSQBGEQvoFpQNjXiQe8AXZZqd6\na3lRkqRYLCaLzkB6yoKA1d2S68Ixwm/KCoHh4bGkwzJr5erCrds/fvkVzXHSmRGEoCkyXCwWb95c\n6/V6I2PDI6PDpmnatj1gJm3bxDyolC0F/ZyfY/vtvutYFmm1qnVLFwFHPTw/PTU+VKt0dVlHLB21\nlYDAOmpFURTM1TFHjwmJRnv77OVzCIJgtI8OpqrV6vJOxyHiuiVqqmyApoPKJiDtZqvdWgcwXEdT\nlW4PBj0VR0xdcwxVIBBeoFFaD8Z9QoidP7Jv6ebtQml7dWNRMTWjVKjXyigEszhKYPhudltT1GQi\nurq9g9I4hKKb2znb1tmTR2b3HWMw7vnXllGMzOZ2GVaYmpqybfuZZ5+f2zcf9PtV23n9wsUvPfY4\nwcKirtkgImqaIEQbzbJtGz4OtwlMlmVDsUEQ5H3E0EjCfkGzbI0XWNPQHdvz+4KqUiYwenZ6JDUQ\nUVW11RY9iJb6gN1uHJ7fZ6pyu92eP3QkGImdv3BJ0zSVB3k7EEslJzITKIrfWF6Z3n8gMTny7KtP\nDacTPIN7BIxSOC0EHNVttdR0JrGyvCYrfUlTZg/sxwgcAhEcI3d229Vqe3ZueubgCVHs2jBWq1cc\nxyuViru7eUWV4/Go7VjNZlXTZcsmAceCPKzXbQmCgECeqsnRaNRDvDCB18pV3DZogSVRUDdkDAEd\nAFAM24MxwUdzLGvpRqfR0iXdUm0EI+yJyXRmaGxxeT2VDtre0OBQ5MbNW/smhnme3t5aF0gkFgnZ\nas/VpGSA0zQtk8mIotjpdJrNJggjx48fr9WbR+fnd7JZgqYkpQ8B3n2nTx8+cWxpeWkokoJhOMIy\nkSAv4JD1/5R0p79x3IcZx2d+c987O3txDy5JURSp+7Il1YpiRTGcAw3iuEacvAjQouiLAm31Jkjb\noGjf9FXRBgnQJm3Spq/sFGlcJKmbxkBlO4auSLRFkaJIkcvl3ruzO/d994X+j+f7fKyxbcuBFTqJ\nl6ZpV+5DTwFBEF4W6L45faZksCrW+LGp7Qy35+bmPNTe7z3BU/j9/d9apkNzOZrhYbZQF4skK2ia\nQdO16axl2X1OwM9fPPOZG1c73f3NzQ3JFqbTabVa7LQPUC84Vm0+648JHLNNJwpDXbOS1C8UGpap\n7jzdQWAa82wejqo8gJ1JpGk5gmNY/Gi5ANHGWJVr9QUzSmcuPPMIdXPcbC51+1NN1wgqXXQhmqMT\nJ6ZihARY6pqNoshRFE1hARzxxblqpZQm0eO2CWBpf0+NXHgyTnZ3FF1FeL7eOdyj0Szw7FG3JXC8\nZ9lwBh2Zn8c5visPYITwvOyd//r12//28ytnj146feby1U8NJrIsy0N5WqhoFy5cgDH87oOHL184\nevbS1V/897uy6Vx5+cb6xmM7znyAiixLkqRpqoPBgEDgcnEuCZzJZMLkwiQJLUuLYh+C0sFgpOu6\nJBWV2Y5hkstHyqLIZBns+ZBUaE6VUIwDmiS6ncPF5nxjvjkYTT5+tCFKRVTM9dVpoVr50uuv3bv3\n20+ebK5efuHspfM//PnbQX+UF3CBBClAZMOEfAwmc67rua5XKBRTFRSLJc/3NU3v9nuHMqwobtmK\nNw+GjmOaKZh6oevaJIk7rpXP53IiN51ODFODYWg8HrEYQmGoa5uFfA5GYdd2UyQL0rAMQVNNFTK4\n2iiGUTpVpq5n4DieEASMIBTLCnzOhSwLoBiKlvNFVDfk4yePvPDipY83P9nceri33wEY9JuP3j+1\ncrZRKTx+MEtYUMw10sgtCPTp1eW7D7fPnD7X7nQAAACANE1f/703tp48pXEsz3OsKJi2kWXJiZNr\nNE3+yw9/8PuvvDoc9XfG4wHXyqBIVWcoBnABPugf1mq1BMlavXYcxzAMe5Gn67phTy4tXcXROMRj\nqUmVj3CdAx9LYaHUVA8OtTCOsCQJQWJ4jofounP79iPHyRYWm16gPvz4gRvOwsjyAwcKirHjF7j8\nnr3to67ECXCU0BRrGWaOF0g6spxZ4NtPNsfbW3sXz78EQi9HIgsVKYh0NEFLhVIU4CvzNRTDB325\nMrfw4b0NmDqkmbKmuAgdjdV4PHFoKimWs3IpR5UoEXchCLn7+IEoCjkGt0zD1pUCR2WB1z1s2xiL\n4/hHH+4Gdthty8ePRL4nkKhAIcrCkSVVns4mMkyRBAKTOLG6tIBb/lif9ntDkqNYRqrm8Dgib9/e\n+puvfP3dd38VRcl4LBPE3uc//8V8vnD37v0XTy9f++wrH9570O5Prnz6+v/deWAHcYqQFEXxPG8Y\nA1mWq6VCsVjMIjCdTnHGDCM3zRIcRzEMM00ziqJyuawoz2ZTkeFQGM7SLEszIOQqu7u9ioBahjYc\nEmtrayRJbj3abHdmACPDobXy8koRZyez6Ud3bg8m/lCbff/HP2LyFcUcR5nP1AsxgowVg0jZsjg/\nGrXy+cLVq5/a2N7CUGJsTE3HHg7GTlbTnejJs8PtvZbj6aLIh5Hn+wEvsIVCvliUcAIbjXpJkpAk\n2W4PxEaJpWiGoiVJImk6SmKW5yzHLvgIEYc0L6w0a5rtaqZi+1YEYVnGZWmKo5hLkFEUEQQxX62d\nPnkK/utvvFSpVPcPDofy9OSZczhF7z7bNyz76pXzFMX0+0Oek4qFuXd+9svdndbXvvb1mphBYRiY\npj6bacYsRFJCYui84I17glhwvKQ7kG9+8686/cn99cdbT3ZePX0sTdMoitbW1jY3N3u93vXr11ut\nlmo/xjDsuU1SLpdLpdJwONzY2MHFfF7iksgFaVIQq1nExg4r5ervP7nT7/eDIKpUKhTJaJrm+z5F\nMTHuH10+FkVpFGanTp4vFeceP97+eP2Rqe5+9auvWoYpMKxn2ctLR1p7+0vNhQNVf37P+OzZs+Fw\nyHFcpVKhafp+f6NSmhOYvO9GoZ0SGM2SAgKj3cGzIIjjCCQxlGYRTmQknQEk8r1ilsbyuEeS0MVz\nxzkO6x7uaeosBqxtuzTNlktzYZi0Dzqu6+dy+Y4pP8cmnqe6HMcxDINhGGZ0MIJiWF4QBJoXSJKC\nYCSFoSTwZ7NZlkCe6XZbnSRKWYpxHedbf/JauVL9oz/+9slzx1Q7PHfp8vKxU3928y//4I1rn/vs\nZyLH+sfvfu+f/vnH3/3+v3/wYKvSOGqz4WFrH8vSU8dW5wRem4zSICiJkolqr3/ljZ/+5KevXH/l\n9Ikz//qDH1VKcxAEW/a9pbUzYz2AafHKSy9/7zvfiVxr2JH/9A+/wbLsW2+9dfPmzffee297e/vG\njRt37tw5NS+du3j53vrm8bOXf/Ng89bt9Rgm5uoLPD3gaEniyzTKJb4VeDKADJwIG8UXRVFst9vl\ncjmOY8dxWJZ9++3/xPNctVIicMzQVCgOykWJZejQ9zBpdSx3FLX/uS9cb7V2FcV4tjtYWz0m5DQU\nxWez2Re/8Lu3bn1QrdYvXnjh1q1b997bv/I7JxdWTkxVfa87dqIszoAXhCCPhU48OZRPLK7URAnL\nvJdePFUpiqjnhPfvP5CKZZ4R6tXGvfsPUYTIcbhhzhzX7PZaCOh5TQcnsuZiqdaQ7NleaLu+rnqe\nmcF+ksWGZk/NcVMq7uw8XV458eXXviRPBvfu3j/oDkxDNU29VCrhOJ9liWFoqjrr9Tqj0cBwNYZh\nAAAQhCQxiEIIyjACxxjASFQ+xhnbtSwrciw9jRKELtpWGEcQgVO5XI7nWYAmihKkmTNfnydw1LEM\ny/J63QNd1TqH+5Nxf2mJg2EEhhHDcnrtDs/lSqVKvbnw4cYvHceBYXg8HsuyrKqq67qiKBbYOWWo\nD50Jx/BzhTmGIgLX0E1LGY8cK+RYiaJoy/agKAZpZlrTQWc/L4kIjuQEEQKoarh2BMhcxdAMGIZ9\n35/NZlkGUBQlSTKO4yIvPl8yYyjGoASegdjx/dhOTQcgIaH7iuYyjIkTFAAghTIoC2zbZSgaAYBh\nKSiFOZpBEeh/79x/7cuvf/tv/+Lv/v4fjq6splkAYO/EWmmkTA+H/YqU4wv5ia4U69VofZMSOL5M\nQEkaug4AwA9jBMORDArS+OypaxRRjEN8/eFWe68vy7PTp04BAMCknOPLduQQufJUNmhKyBAcbUAk\nSa6vr6+srCiKgmFYtVptt9v1ev3E+ROMmDdc23T15nz5OnphZ6+tTFu146VmvcGQ4myo2LpOYFCc\nZoqqvHCmury8HKdpq9XyPG91dXVxcbHWqJQXF3M8iwDY5DnfNigCYxhGEnNqDBRFUVS93W7jOA7D\nMI5Ds9mMomAoS3NCQddN3w/z+byiKKPR6PhRMc9RgaUqshzYOsuJglQCKLa9t8kRbIAjSBJEvomR\nGUrAMJ6gnhM8vH/4yqulHC/BGfLo482jK6swirmOQpJ0GtthnEZhoVplJQnHMS8FbpjqQWwANKJx\nGIEgzXcdy2xeOG857uJS88K5s//xs1/oypAnUZ9G5OlorloS87zjmpatx0mgqLJpaZ4P4Sj63Fxx\nrBQFge/CKOCADbCAgDIkcnwjihQjyACEBc5cqYrCSAbFAkfnRZYgIooMozhwTcvWLcf2sgzSphMo\njgUGW16sILg5GE1IHA/9oNsbFgqlk2vHozhlGCZNUxzHq9Uqy7JBEOTz+Vqt9s7/fABlmcCxCAZp\no6Ec+qWCdOLoYmAbPWPCoCiDE6bv0zRRLYiTzAtZp5hDKY5n8znPj7rjmRNki0cW1dl6s9lkGG4y\nnna7g8CPGIajKApLIxyDEoCiKEoAFEmyMAyiIMDQXBzHgZXYjmXiAYZhz3miFLhhGBalAktSWZYg\nAEBwmGb+J23L+9Wv//xb37y68cnm4w3J5jB48canz3304NGj3e1L587QUm5j92ltZcmOwwRHEjcg\nCCoNo5mq+RhOYwDAsGo5szHU5+z5+gkoCQ/bPQzDsizZ2nq8vFC3TUhXo8VK8cnmgetkaAbXq0dy\nucJgMHnzzTc7nQ6CELVas9VqXbt2TYtjOEq8NJkqY4wk1pYLvtWLLOXowktpCnRlZhqqosiRb7As\n4IUCL+X9JE4RkADYiyMnDII0qS8uOGFomiZDUyzL4iCD0pjjuEatOn06m0wmrge1Wq2LF89OpxpN\n0+OxsrjQQAAmSdJkPPM8r9FotFoteepcqgkcATMkSEuCyNEwwQQpZFh6g8Qb9bqMM1AGQt/AETjK\nbN31/h/i5fQdzOGQmQAAAABJRU5ErkJggg==\n" /><br /><input name="recaptcha_response_field" type="text" /></div></td><td class="w2p_fc"></td></tr><tr id="submit_record__row"><td class="w2p_fl"></td><td class="w2p_fw"><input type="submit" value="Sign Up" /></td><td class="w2p_fc"></td></tr></table><div style="display:none;"><input name="_next" type="hidden" value="/places/default/index" /><input name="_formkey" type="hidden" value="64286dc5-32c7-4ac2-ba5d-0c0314e8fff5" /><input name="_formname" type="hidden" value="register" /></div></form>\n</div>\n<script language="javascript"><!--\njQuery("#web2py_user_form input:visible:enabled:first").focus();\n\n    web2py_validate_entropy(jQuery(\'#auth_user_password\'),100);\n\n//--></script>\n\n\n            \n        </div>\n\n        \n    </section><!--/main-->\n\n    <!-- Footer ================================================== -->\n    <div class="row">\n        <footer class="footer span12" id="footer">\n        </footer>\n    </div>\n\n  </div> <!-- /container -->\n\n  <!-- The javascript =============================================\n       (Placed at the end of the document so the pages load faster) -->\n  <script src="/places/static/js/bootstrap.min.js"></script>\n  <script src="/places/static/js/web2py_bootstrap.js"></script>\n  <!--[if lt IE 7 ]>\n      <script src="/places/static/js/dd_belatedpng.js"></script>\n      <script> DD_belatedPNG.fix(\'img, .png_bg\'); //fix any <img> or .png_bg background-images </script>\n      <![endif]-->\n</body>\n</html>\n\n'
p3
s.